	.text
	.syntax unified
	.eabi_attribute	67, "2.09"	@ Tag_conformance
	.cpu	cortex-m7
	.eabi_attribute	6, 13	@ Tag_CPU_arch
	.eabi_attribute	7, 77	@ Tag_CPU_arch_profile
	.eabi_attribute	8, 0	@ Tag_ARM_ISA_use
	.eabi_attribute	9, 2	@ Tag_THUMB_ISA_use
	.fpu	fpv5-d16
	.eabi_attribute	36, 1	@ Tag_FP_HP_extension
	.eabi_attribute	34, 1	@ Tag_CPU_unaligned_access
	.eabi_attribute	17, 1	@ Tag_ABI_PCS_GOT_use
	.eabi_attribute	20, 2	@ Tag_ABI_FP_denormal
	.eabi_attribute	21, 0	@ Tag_ABI_FP_exceptions
	.eabi_attribute	23, 1	@ Tag_ABI_FP_number_model
	.eabi_attribute	24, 1	@ Tag_ABI_align_needed
	.eabi_attribute	25, 1	@ Tag_ABI_align_preserved
	.eabi_attribute	28, 1	@ Tag_ABI_VFP_args
	.eabi_attribute	38, 1	@ Tag_ABI_FP_16bit_format
	.eabi_attribute	18, 2	@ Tag_ABI_PCS_wchar_t
	.eabi_attribute	26, 1	@ Tag_ABI_enum_size
	.eabi_attribute	14, 0	@ Tag_ABI_PCS_R9_use
	.file	"ymodem.c"
	.file	1 "E:\\STM32\\Learning\\STM32H750_ART_PI_RGBLCD" "./rt-thread/components/utilities/ymodem/ymodem.h"
	.file	2 "E:\\STM32\\Learning\\STM32H750_ART_PI_RGBLCD" "rt-thread/include\\rtdef.h"
	.file	3 "E:\\STM32\\Learning\\STM32H750_ART_PI_RGBLCD" "rt-thread/components/utilities/ymodem/ymodem.c"
	.section	.text.rym_recv_on_device,"ax",%progbits
	.hidden	rym_recv_on_device              @ -- Begin function rym_recv_on_device
	.globl	rym_recv_on_device
	.p2align	3
	.type	rym_recv_on_device,%function
	.code	16                              @ @rym_recv_on_device
	.thumb_func
rym_recv_on_device:
.Lfunc_begin0:
	.loc	3 626 0                         @ rt-thread/components/utilities/ymodem/ymodem.c:626:0
	.fnstart
	.cfi_sections .debug_frame
	.cfi_startproc
@ %bb.0:
	.save	{r7, lr}
	push	{r7, lr}
	.cfi_def_cfa_offset 8
	.cfi_offset lr, -4
	.cfi_offset r7, -8
	.pad	#32
	sub	sp, #32
	.cfi_def_cfa_offset 40
	ldr.w	r12, [sp, #48]
	ldr.w	r12, [sp, #44]
	ldr.w	r12, [sp, #40]
                                        @ kill: def $r12 killed $r2
	str	r0, [sp, #28]
	str	r1, [sp, #24]
	strh.w	r2, [sp, #22]
	str	r3, [sp, #16]
.Ltmp0:
	.loc	3 632 5 prologue_end            @ rt-thread/components/utilities/ymodem/ymodem.c:632:5
	movw	r0, :lower16:_rym_the_ctx
	movt	r0, :upper16:_rym_the_ctx
	ldr	r0, [r0]
.Ltmp1:
	.loc	3 632 5 is_stmt 0               @ rt-thread/components/utilities/ymodem/ymodem.c:632:5
	cbz	r0, .LBB0_2
	b	.LBB0_1
.LBB0_1:
.Ltmp2:
	.loc	3 632 5                         @ rt-thread/components/utilities/ymodem/ymodem.c:632:5
	movw	r0, :lower16:.L.str
	movt	r0, :upper16:.L.str
	movw	r1, :lower16:.L__FUNCTION__.rym_recv_on_device
	movt	r1, :upper16:.L__FUNCTION__.rym_recv_on_device
	mov.w	r2, #632
	bl	rt_assert_handler
	b	.LBB0_2
.Ltmp3:
.LBB0_2:
	.loc	3 633 20 is_stmt 1              @ rt-thread/components/utilities/ymodem/ymodem.c:633:20
	ldr	r0, [sp, #28]
	.loc	3 633 18 is_stmt 0              @ rt-thread/components/utilities/ymodem/ymodem.c:633:18
	movw	r1, :lower16:_rym_the_ctx
	movt	r1, :upper16:_rym_the_ctx
	str	r0, [r1]
	.loc	3 635 21 is_stmt 1              @ rt-thread/components/utilities/ymodem/ymodem.c:635:21
	ldr	r0, [sp, #16]
	.loc	3 635 5 is_stmt 0               @ rt-thread/components/utilities/ymodem/ymodem.c:635:5
	ldr	r1, [sp, #28]
	.loc	3 635 19                        @ rt-thread/components/utilities/ymodem/ymodem.c:635:19
	str	r0, [r1, #4]
	.loc	3 636 21 is_stmt 1              @ rt-thread/components/utilities/ymodem/ymodem.c:636:21
	ldr	r0, [sp, #40]
	.loc	3 636 5 is_stmt 0               @ rt-thread/components/utilities/ymodem/ymodem.c:636:5
	ldr	r1, [sp, #28]
	.loc	3 636 19                        @ rt-thread/components/utilities/ymodem/ymodem.c:636:19
	str	r0, [r1]
	.loc	3 637 21 is_stmt 1              @ rt-thread/components/utilities/ymodem/ymodem.c:637:21
	ldr	r0, [sp, #44]
	.loc	3 637 5 is_stmt 0               @ rt-thread/components/utilities/ymodem/ymodem.c:637:5
	ldr	r1, [sp, #28]
	.loc	3 637 19                        @ rt-thread/components/utilities/ymodem/ymodem.c:637:19
	str	r0, [r1, #8]
	.loc	3 638 21 is_stmt 1              @ rt-thread/components/utilities/ymodem/ymodem.c:638:21
	ldr	r0, [sp, #24]
	.loc	3 638 5 is_stmt 0               @ rt-thread/components/utilities/ymodem/ymodem.c:638:5
	ldr	r1, [sp, #28]
	.loc	3 638 19                        @ rt-thread/components/utilities/ymodem/ymodem.c:638:19
	str	r0, [r1, #52]
	.loc	3 639 18 is_stmt 1              @ rt-thread/components/utilities/ymodem/ymodem.c:639:18
	ldr	r0, [sp, #28]
	.loc	3 639 23 is_stmt 0              @ rt-thread/components/utilities/ymodem/ymodem.c:639:23
	adds	r0, #20
	.loc	3 639 5                         @ rt-thread/components/utilities/ymodem/ymodem.c:639:5
	movw	r1, :lower16:.L.str.1
	movt	r1, :upper16:.L.str.1
	movs	r3, #0
	mov	r2, r3
	bl	rt_sem_init
	.loc	3 641 19 is_stmt 1              @ rt-thread/components/utilities/ymodem/ymodem.c:641:19
	ldr	r0, [sp, #24]
	.loc	3 641 24 is_stmt 0              @ rt-thread/components/utilities/ymodem/ymodem.c:641:24
	ldr	r0, [r0, #28]
	.loc	3 641 17                        @ rt-thread/components/utilities/ymodem/ymodem.c:641:17
	str	r0, [sp, #8]
	.loc	3 644 15 is_stmt 1              @ rt-thread/components/utilities/ymodem/ymodem.c:644:15
	bl	rt_hw_interrupt_disable
	.loc	3 644 13 is_stmt 0              @ rt-thread/components/utilities/ymodem/ymodem.c:644:13
	str	r0, [sp]
	.loc	3 645 31 is_stmt 1              @ rt-thread/components/utilities/ymodem/ymodem.c:645:31
	ldr	r0, [sp, #24]
	.loc	3 645 5 is_stmt 0               @ rt-thread/components/utilities/ymodem/ymodem.c:645:5
	movw	r1, :lower16:_rym_rx_ind
	movt	r1, :upper16:_rym_rx_ind
	bl	rt_device_set_rx_indicate
	.loc	3 647 17 is_stmt 1              @ rt-thread/components/utilities/ymodem/ymodem.c:647:17
	ldr	r0, [sp, #24]
	.loc	3 647 22 is_stmt 0              @ rt-thread/components/utilities/ymodem/ymodem.c:647:22
	ldrh	r0, [r0, #24]
	.loc	3 647 15                        @ rt-thread/components/utilities/ymodem/ymodem.c:647:15
	strh.w	r0, [sp, #6]
	.loc	3 649 5 is_stmt 1               @ rt-thread/components/utilities/ymodem/ymodem.c:649:5
	ldr	r1, [sp, #24]
	.loc	3 649 20 is_stmt 0              @ rt-thread/components/utilities/ymodem/ymodem.c:649:20
	ldrh	r0, [r1, #24]
	bic	r0, r0, #64
	strh	r0, [r1, #24]
	.loc	3 650 28 is_stmt 1              @ rt-thread/components/utilities/ymodem/ymodem.c:650:28
	ldr	r0, [sp]
	.loc	3 650 5 is_stmt 0               @ rt-thread/components/utilities/ymodem/ymodem.c:650:5
	bl	rt_hw_interrupt_enable
	.loc	3 652 26 is_stmt 1              @ rt-thread/components/utilities/ymodem/ymodem.c:652:26
	ldr	r0, [sp, #24]
	.loc	3 652 31 is_stmt 0              @ rt-thread/components/utilities/ymodem/ymodem.c:652:31
	ldrh.w	r1, [sp, #22]
	.loc	3 652 11                        @ rt-thread/components/utilities/ymodem/ymodem.c:652:11
	bl	rt_device_open
	.loc	3 652 9                         @ rt-thread/components/utilities/ymodem/ymodem.c:652:9
	str	r0, [sp, #12]
.Ltmp4:
	.loc	3 653 9 is_stmt 1               @ rt-thread/components/utilities/ymodem/ymodem.c:653:9
	ldr	r0, [sp, #12]
.Ltmp5:
	.loc	3 653 9 is_stmt 0               @ rt-thread/components/utilities/ymodem/ymodem.c:653:9
	cbz	r0, .LBB0_4
	b	.LBB0_3
.LBB0_3:
.Ltmp6:
	.loc	3 654 9 is_stmt 1               @ rt-thread/components/utilities/ymodem/ymodem.c:654:9
	b	.LBB0_5
.Ltmp7:
.LBB0_4:
	.loc	3 656 24                        @ rt-thread/components/utilities/ymodem/ymodem.c:656:24
	ldr	r0, [sp, #28]
	.loc	3 656 29 is_stmt 0              @ rt-thread/components/utilities/ymodem/ymodem.c:656:29
	ldr	r1, [sp, #48]
	.loc	3 656 11                        @ rt-thread/components/utilities/ymodem/ymodem.c:656:11
	bl	_rym_do_recv
	.loc	3 656 9                         @ rt-thread/components/utilities/ymodem/ymodem.c:656:9
	str	r0, [sp, #12]
	.loc	3 658 21 is_stmt 1              @ rt-thread/components/utilities/ymodem/ymodem.c:658:21
	ldr	r0, [sp, #24]
	.loc	3 658 5 is_stmt 0               @ rt-thread/components/utilities/ymodem/ymodem.c:658:5
	bl	rt_device_close
	b	.LBB0_5
.LBB0_5:
.Ltmp8:
	@DEBUG_LABEL: rym_recv_on_device:__exit
	.loc	3 663 15 is_stmt 1              @ rt-thread/components/utilities/ymodem/ymodem.c:663:15
	bl	rt_hw_interrupt_disable
	.loc	3 663 13 is_stmt 0              @ rt-thread/components/utilities/ymodem/ymodem.c:663:13
	str	r0, [sp]
	.loc	3 664 20 is_stmt 1              @ rt-thread/components/utilities/ymodem/ymodem.c:664:20
	ldr	r0, [sp, #28]
	.loc	3 664 25 is_stmt 0              @ rt-thread/components/utilities/ymodem/ymodem.c:664:25
	adds	r0, #20
	.loc	3 664 5                         @ rt-thread/components/utilities/ymodem/ymodem.c:664:5
	bl	rt_sem_detach
	.loc	3 666 22 is_stmt 1              @ rt-thread/components/utilities/ymodem/ymodem.c:666:22
	ldrh.w	r0, [sp, #6]
	.loc	3 666 5 is_stmt 0               @ rt-thread/components/utilities/ymodem/ymodem.c:666:5
	ldr	r1, [sp, #24]
	.loc	3 666 20                        @ rt-thread/components/utilities/ymodem/ymodem.c:666:20
	strh	r0, [r1, #24]
	.loc	3 667 31 is_stmt 1              @ rt-thread/components/utilities/ymodem/ymodem.c:667:31
	ldr	r0, [sp, #24]
	.loc	3 667 36 is_stmt 0              @ rt-thread/components/utilities/ymodem/ymodem.c:667:36
	ldr	r1, [sp, #8]
	.loc	3 667 5                         @ rt-thread/components/utilities/ymodem/ymodem.c:667:5
	bl	rt_device_set_rx_indicate
	.loc	3 668 28 is_stmt 1              @ rt-thread/components/utilities/ymodem/ymodem.c:668:28
	ldr	r0, [sp]
	.loc	3 668 5 is_stmt 0               @ rt-thread/components/utilities/ymodem/ymodem.c:668:5
	bl	rt_hw_interrupt_enable
	.loc	3 670 18 is_stmt 1              @ rt-thread/components/utilities/ymodem/ymodem.c:670:18
	movw	r1, :lower16:_rym_the_ctx
	movt	r1, :upper16:_rym_the_ctx
	movs	r0, #0
	str	r0, [r1]
	.loc	3 672 12                        @ rt-thread/components/utilities/ymodem/ymodem.c:672:12
	ldr	r0, [sp, #12]
	.loc	3 672 5 is_stmt 0               @ rt-thread/components/utilities/ymodem/ymodem.c:672:5
	add	sp, #32
	pop	{r7, pc}
.Ltmp9:
.Lfunc_end0:
	.size	rym_recv_on_device, .Lfunc_end0-rym_recv_on_device
	.cfi_endproc
	.cantunwind
	.fnend
                                        @ -- End function
	.section	.text._rym_rx_ind,"ax",%progbits
	.p2align	3                               @ -- Begin function _rym_rx_ind
	.type	_rym_rx_ind,%function
	.code	16                              @ @_rym_rx_ind
	.thumb_func
_rym_rx_ind:
.Lfunc_begin1:
	.loc	3 90 0 is_stmt 1                @ rt-thread/components/utilities/ymodem/ymodem.c:90:0
	.fnstart
	.cfi_startproc
@ %bb.0:
	.save	{r7, lr}
	push	{r7, lr}
	.cfi_def_cfa_offset 8
	.cfi_offset lr, -4
	.cfi_offset r7, -8
	.pad	#8
	sub	sp, #8
	.cfi_def_cfa_offset 16
	str	r0, [sp, #4]
	str	r1, [sp]
.Ltmp10:
	.loc	3 91 28 prologue_end            @ rt-thread/components/utilities/ymodem/ymodem.c:91:28
	movw	r0, :lower16:_rym_the_ctx
	movt	r0, :upper16:_rym_the_ctx
	ldr	r0, [r0]
	.loc	3 91 42 is_stmt 0               @ rt-thread/components/utilities/ymodem/ymodem.c:91:42
	adds	r0, #20
	.loc	3 91 12                         @ rt-thread/components/utilities/ymodem/ymodem.c:91:12
	bl	rt_sem_release
	.loc	3 91 5                          @ rt-thread/components/utilities/ymodem/ymodem.c:91:5
	add	sp, #8
	pop	{r7, pc}
.Ltmp11:
.Lfunc_end1:
	.size	_rym_rx_ind, .Lfunc_end1-_rym_rx_ind
	.cfi_endproc
	.cantunwind
	.fnend
                                        @ -- End function
	.section	.text._rym_do_recv,"ax",%progbits
	.p2align	3                               @ -- Begin function _rym_do_recv
	.type	_rym_do_recv,%function
	.code	16                              @ @_rym_do_recv
	.thumb_func
_rym_do_recv:
.Lfunc_begin2:
	.loc	3 543 0 is_stmt 1               @ rt-thread/components/utilities/ymodem/ymodem.c:543:0
	.fnstart
	.cfi_startproc
@ %bb.0:
	.save	{r7, lr}
	push	{r7, lr}
	.cfi_def_cfa_offset 8
	.cfi_offset lr, -4
	.cfi_offset r7, -8
	.pad	#16
	sub	sp, #16
	.cfi_def_cfa_offset 24
	str	r0, [sp, #8]
	str	r1, [sp, #4]
.Ltmp12:
	.loc	3 546 5 prologue_end            @ rt-thread/components/utilities/ymodem/ymodem.c:546:5
	ldr	r1, [sp, #8]
	movs	r0, #0
	.loc	3 546 16 is_stmt 0              @ rt-thread/components/utilities/ymodem/ymodem.c:546:16
	strb	r0, [r1, #12]
	movw	r0, #1029
	.loc	3 548 16 is_stmt 1              @ rt-thread/components/utilities/ymodem/ymodem.c:548:16
	bl	rt_malloc
	.loc	3 548 5 is_stmt 0               @ rt-thread/components/utilities/ymodem/ymodem.c:548:5
	ldr	r1, [sp, #8]
	.loc	3 548 14                        @ rt-thread/components/utilities/ymodem/ymodem.c:548:14
	str	r0, [r1, #16]
.Ltmp13:
	.loc	3 549 9 is_stmt 1               @ rt-thread/components/utilities/ymodem/ymodem.c:549:9
	ldr	r0, [sp, #8]
	.loc	3 549 14 is_stmt 0              @ rt-thread/components/utilities/ymodem/ymodem.c:549:14
	ldr	r0, [r0, #16]
.Ltmp14:
	.loc	3 549 9                         @ rt-thread/components/utilities/ymodem/ymodem.c:549:9
	cbnz	r0, .LBB2_2
	b	.LBB2_1
.LBB2_1:
	.loc	3 0 9                           @ rt-thread/components/utilities/ymodem/ymodem.c:0:9
	mvn	r0, #4
.Ltmp15:
	.loc	3 550 9 is_stmt 1               @ rt-thread/components/utilities/ymodem/ymodem.c:550:9
	str	r0, [sp, #12]
	b	.LBB2_13
.Ltmp16:
.LBB2_2:
	.loc	3 552 29                        @ rt-thread/components/utilities/ymodem/ymodem.c:552:29
	ldr	r0, [sp, #8]
	.loc	3 552 34 is_stmt 0              @ rt-thread/components/utilities/ymodem/ymodem.c:552:34
	ldr	r1, [sp, #4]
	.loc	3 552 11                        @ rt-thread/components/utilities/ymodem/ymodem.c:552:11
	bl	_rym_do_handshake
	.loc	3 552 9                         @ rt-thread/components/utilities/ymodem/ymodem.c:552:9
	str	r0, [sp]
.Ltmp17:
	.loc	3 553 9 is_stmt 1               @ rt-thread/components/utilities/ymodem/ymodem.c:553:9
	ldr	r0, [sp]
.Ltmp18:
	.loc	3 553 9 is_stmt 0               @ rt-thread/components/utilities/ymodem/ymodem.c:553:9
	cbz	r0, .LBB2_4
	b	.LBB2_3
.LBB2_3:
.Ltmp19:
	.loc	3 555 17 is_stmt 1              @ rt-thread/components/utilities/ymodem/ymodem.c:555:17
	ldr	r0, [sp, #8]
	.loc	3 555 22 is_stmt 0              @ rt-thread/components/utilities/ymodem/ymodem.c:555:22
	ldr	r0, [r0, #16]
	.loc	3 555 9                         @ rt-thread/components/utilities/ymodem/ymodem.c:555:9
	bl	rt_free
	.loc	3 556 16 is_stmt 1              @ rt-thread/components/utilities/ymodem/ymodem.c:556:16
	ldr	r0, [sp]
	.loc	3 556 9 is_stmt 0               @ rt-thread/components/utilities/ymodem/ymodem.c:556:9
	str	r0, [sp, #12]
	b	.LBB2_13
.Ltmp20:
.LBB2_4:
	.loc	3 558 5 is_stmt 1               @ rt-thread/components/utilities/ymodem/ymodem.c:558:5
	b	.LBB2_5
.LBB2_5:                                @ =>This Inner Loop Header: Depth=1
.Ltmp21:
	.loc	3 560 29                        @ rt-thread/components/utilities/ymodem/ymodem.c:560:29
	ldr	r0, [sp, #8]
	.loc	3 560 15 is_stmt 0              @ rt-thread/components/utilities/ymodem/ymodem.c:560:15
	bl	_rym_do_trans
	.loc	3 560 13                        @ rt-thread/components/utilities/ymodem/ymodem.c:560:13
	str	r0, [sp]
.Ltmp22:
	.loc	3 561 13 is_stmt 1              @ rt-thread/components/utilities/ymodem/ymodem.c:561:13
	ldr	r0, [sp]
.Ltmp23:
	.loc	3 561 13 is_stmt 0              @ rt-thread/components/utilities/ymodem/ymodem.c:561:13
	cbz	r0, .LBB2_7
	b	.LBB2_6
.LBB2_6:
.Ltmp24:
	.loc	3 563 21 is_stmt 1              @ rt-thread/components/utilities/ymodem/ymodem.c:563:21
	ldr	r0, [sp, #8]
	.loc	3 563 26 is_stmt 0              @ rt-thread/components/utilities/ymodem/ymodem.c:563:26
	ldr	r0, [r0, #16]
	.loc	3 563 13                        @ rt-thread/components/utilities/ymodem/ymodem.c:563:13
	bl	rt_free
	.loc	3 564 20 is_stmt 1              @ rt-thread/components/utilities/ymodem/ymodem.c:564:20
	ldr	r0, [sp]
	.loc	3 564 13 is_stmt 0              @ rt-thread/components/utilities/ymodem/ymodem.c:564:13
	str	r0, [sp, #12]
	b	.LBB2_13
.Ltmp25:
.LBB2_7:                                @   in Loop: Header=BB2_5 Depth=1
	.loc	3 567 27 is_stmt 1              @ rt-thread/components/utilities/ymodem/ymodem.c:567:27
	ldr	r0, [sp, #8]
	.loc	3 567 15 is_stmt 0              @ rt-thread/components/utilities/ymodem/ymodem.c:567:15
	bl	_rym_do_fin
	.loc	3 567 13                        @ rt-thread/components/utilities/ymodem/ymodem.c:567:13
	str	r0, [sp]
.Ltmp26:
	.loc	3 568 13 is_stmt 1              @ rt-thread/components/utilities/ymodem/ymodem.c:568:13
	ldr	r0, [sp]
.Ltmp27:
	.loc	3 568 13 is_stmt 0              @ rt-thread/components/utilities/ymodem/ymodem.c:568:13
	cbz	r0, .LBB2_9
	b	.LBB2_8
.LBB2_8:
.Ltmp28:
	.loc	3 570 21 is_stmt 1              @ rt-thread/components/utilities/ymodem/ymodem.c:570:21
	ldr	r0, [sp, #8]
	.loc	3 570 26 is_stmt 0              @ rt-thread/components/utilities/ymodem/ymodem.c:570:26
	ldr	r0, [r0, #16]
	.loc	3 570 13                        @ rt-thread/components/utilities/ymodem/ymodem.c:570:13
	bl	rt_free
	.loc	3 571 20 is_stmt 1              @ rt-thread/components/utilities/ymodem/ymodem.c:571:20
	ldr	r0, [sp]
	.loc	3 571 13 is_stmt 0              @ rt-thread/components/utilities/ymodem/ymodem.c:571:13
	str	r0, [sp, #12]
	b	.LBB2_13
.Ltmp29:
.LBB2_9:                                @   in Loop: Header=BB2_5 Depth=1
	.loc	3 574 13 is_stmt 1              @ rt-thread/components/utilities/ymodem/ymodem.c:574:13
	ldr	r0, [sp, #8]
	.loc	3 574 18 is_stmt 0              @ rt-thread/components/utilities/ymodem/ymodem.c:574:18
	ldrb	r0, [r0, #12]
.Ltmp30:
	.loc	3 574 13                        @ rt-thread/components/utilities/ymodem/ymodem.c:574:13
	cmp	r0, #5
	bne	.LBB2_11
	b	.LBB2_10
.LBB2_10:
.Ltmp31:
	.loc	3 575 13 is_stmt 1              @ rt-thread/components/utilities/ymodem/ymodem.c:575:13
	b	.LBB2_12
.Ltmp32:
.LBB2_11:                               @   in Loop: Header=BB2_5 Depth=1
	.loc	3 558 5                         @ rt-thread/components/utilities/ymodem/ymodem.c:558:5
	b	.LBB2_5
.LBB2_12:
	.loc	3 577 13                        @ rt-thread/components/utilities/ymodem/ymodem.c:577:13
	ldr	r0, [sp, #8]
	.loc	3 577 18 is_stmt 0              @ rt-thread/components/utilities/ymodem/ymodem.c:577:18
	ldr	r0, [r0, #16]
	.loc	3 577 5                         @ rt-thread/components/utilities/ymodem/ymodem.c:577:5
	bl	rt_free
	.loc	3 578 12 is_stmt 1              @ rt-thread/components/utilities/ymodem/ymodem.c:578:12
	ldr	r0, [sp]
	.loc	3 578 5 is_stmt 0               @ rt-thread/components/utilities/ymodem/ymodem.c:578:5
	str	r0, [sp, #12]
	b	.LBB2_13
.LBB2_13:
	.loc	3 579 1 is_stmt 1               @ rt-thread/components/utilities/ymodem/ymodem.c:579:1
	ldr	r0, [sp, #12]
	add	sp, #16
	pop	{r7, pc}
.Ltmp33:
.Lfunc_end2:
	.size	_rym_do_recv, .Lfunc_end2-_rym_do_recv
	.cfi_endproc
	.cantunwind
	.fnend
                                        @ -- End function
	.section	.text.rym_send_on_device,"ax",%progbits
	.hidden	rym_send_on_device              @ -- Begin function rym_send_on_device
	.globl	rym_send_on_device
	.p2align	3
	.type	rym_send_on_device,%function
	.code	16                              @ @rym_send_on_device
	.thumb_func
rym_send_on_device:
.Lfunc_begin3:
	.loc	3 683 0                         @ rt-thread/components/utilities/ymodem/ymodem.c:683:0
	.fnstart
	.cfi_startproc
@ %bb.0:
	.save	{r7, lr}
	push	{r7, lr}
	.cfi_def_cfa_offset 8
	.cfi_offset lr, -4
	.cfi_offset r7, -8
	.pad	#32
	sub	sp, #32
	.cfi_def_cfa_offset 40
	ldr.w	r12, [sp, #48]
	ldr.w	r12, [sp, #44]
	ldr.w	r12, [sp, #40]
                                        @ kill: def $r12 killed $r2
	str	r0, [sp, #28]
	str	r1, [sp, #24]
	strh.w	r2, [sp, #22]
	str	r3, [sp, #16]
	movs	r0, #0
.Ltmp34:
	.loc	3 684 14 prologue_end           @ rt-thread/components/utilities/ymodem/ymodem.c:684:14
	str	r0, [sp, #12]
.Ltmp35:
	.loc	3 689 5                         @ rt-thread/components/utilities/ymodem/ymodem.c:689:5
	movw	r0, :lower16:_rym_the_ctx
	movt	r0, :upper16:_rym_the_ctx
	ldr	r0, [r0]
.Ltmp36:
	.loc	3 689 5 is_stmt 0               @ rt-thread/components/utilities/ymodem/ymodem.c:689:5
	cbz	r0, .LBB3_2
	b	.LBB3_1
.LBB3_1:
.Ltmp37:
	.loc	3 689 5                         @ rt-thread/components/utilities/ymodem/ymodem.c:689:5
	movw	r0, :lower16:.L.str
	movt	r0, :upper16:.L.str
	movw	r1, :lower16:.L__FUNCTION__.rym_send_on_device
	movt	r1, :upper16:.L__FUNCTION__.rym_send_on_device
	movw	r2, #689
	bl	rt_assert_handler
	b	.LBB3_2
.Ltmp38:
.LBB3_2:
	.loc	3 690 20 is_stmt 1              @ rt-thread/components/utilities/ymodem/ymodem.c:690:20
	ldr	r0, [sp, #28]
	.loc	3 690 18 is_stmt 0              @ rt-thread/components/utilities/ymodem/ymodem.c:690:18
	movw	r1, :lower16:_rym_the_ctx
	movt	r1, :upper16:_rym_the_ctx
	str	r0, [r1]
	.loc	3 692 21 is_stmt 1              @ rt-thread/components/utilities/ymodem/ymodem.c:692:21
	ldr	r0, [sp, #16]
	.loc	3 692 5 is_stmt 0               @ rt-thread/components/utilities/ymodem/ymodem.c:692:5
	ldr	r1, [sp, #28]
	.loc	3 692 19                        @ rt-thread/components/utilities/ymodem/ymodem.c:692:19
	str	r0, [r1, #4]
	.loc	3 693 21 is_stmt 1              @ rt-thread/components/utilities/ymodem/ymodem.c:693:21
	ldr	r0, [sp, #40]
	.loc	3 693 5 is_stmt 0               @ rt-thread/components/utilities/ymodem/ymodem.c:693:5
	ldr	r1, [sp, #28]
	.loc	3 693 19                        @ rt-thread/components/utilities/ymodem/ymodem.c:693:19
	str	r0, [r1]
	.loc	3 694 21 is_stmt 1              @ rt-thread/components/utilities/ymodem/ymodem.c:694:21
	ldr	r0, [sp, #44]
	.loc	3 694 5 is_stmt 0               @ rt-thread/components/utilities/ymodem/ymodem.c:694:5
	ldr	r1, [sp, #28]
	.loc	3 694 19                        @ rt-thread/components/utilities/ymodem/ymodem.c:694:19
	str	r0, [r1, #8]
	.loc	3 695 21 is_stmt 1              @ rt-thread/components/utilities/ymodem/ymodem.c:695:21
	ldr	r0, [sp, #24]
	.loc	3 695 5 is_stmt 0               @ rt-thread/components/utilities/ymodem/ymodem.c:695:5
	ldr	r1, [sp, #28]
	.loc	3 695 19                        @ rt-thread/components/utilities/ymodem/ymodem.c:695:19
	str	r0, [r1, #52]
	.loc	3 696 18 is_stmt 1              @ rt-thread/components/utilities/ymodem/ymodem.c:696:18
	ldr	r0, [sp, #28]
	.loc	3 696 23 is_stmt 0              @ rt-thread/components/utilities/ymodem/ymodem.c:696:23
	adds	r0, #20
	.loc	3 696 5                         @ rt-thread/components/utilities/ymodem/ymodem.c:696:5
	movw	r1, :lower16:.L.str.1
	movt	r1, :upper16:.L.str.1
	movs	r3, #0
	mov	r2, r3
	bl	rt_sem_init
	.loc	3 698 19 is_stmt 1              @ rt-thread/components/utilities/ymodem/ymodem.c:698:19
	ldr	r0, [sp, #24]
	.loc	3 698 24 is_stmt 0              @ rt-thread/components/utilities/ymodem/ymodem.c:698:24
	ldr	r0, [r0, #28]
	.loc	3 698 17                        @ rt-thread/components/utilities/ymodem/ymodem.c:698:17
	str	r0, [sp, #8]
	.loc	3 701 15 is_stmt 1              @ rt-thread/components/utilities/ymodem/ymodem.c:701:15
	bl	rt_hw_interrupt_disable
	.loc	3 701 13 is_stmt 0              @ rt-thread/components/utilities/ymodem/ymodem.c:701:13
	str	r0, [sp]
	.loc	3 702 31 is_stmt 1              @ rt-thread/components/utilities/ymodem/ymodem.c:702:31
	ldr	r0, [sp, #24]
	.loc	3 702 5 is_stmt 0               @ rt-thread/components/utilities/ymodem/ymodem.c:702:5
	movw	r1, :lower16:_rym_rx_ind
	movt	r1, :upper16:_rym_rx_ind
	bl	rt_device_set_rx_indicate
	.loc	3 704 17 is_stmt 1              @ rt-thread/components/utilities/ymodem/ymodem.c:704:17
	ldr	r0, [sp, #24]
	.loc	3 704 22 is_stmt 0              @ rt-thread/components/utilities/ymodem/ymodem.c:704:22
	ldrh	r0, [r0, #24]
	.loc	3 704 15                        @ rt-thread/components/utilities/ymodem/ymodem.c:704:15
	strh.w	r0, [sp, #6]
	.loc	3 706 5 is_stmt 1               @ rt-thread/components/utilities/ymodem/ymodem.c:706:5
	ldr	r1, [sp, #24]
	.loc	3 706 20 is_stmt 0              @ rt-thread/components/utilities/ymodem/ymodem.c:706:20
	ldrh	r0, [r1, #24]
	bic	r0, r0, #64
	strh	r0, [r1, #24]
	.loc	3 707 28 is_stmt 1              @ rt-thread/components/utilities/ymodem/ymodem.c:707:28
	ldr	r0, [sp]
	.loc	3 707 5 is_stmt 0               @ rt-thread/components/utilities/ymodem/ymodem.c:707:5
	bl	rt_hw_interrupt_enable
	.loc	3 709 26 is_stmt 1              @ rt-thread/components/utilities/ymodem/ymodem.c:709:26
	ldr	r0, [sp, #24]
	.loc	3 709 31 is_stmt 0              @ rt-thread/components/utilities/ymodem/ymodem.c:709:31
	ldrh.w	r1, [sp, #22]
	.loc	3 709 11                        @ rt-thread/components/utilities/ymodem/ymodem.c:709:11
	bl	rt_device_open
	.loc	3 709 9                         @ rt-thread/components/utilities/ymodem/ymodem.c:709:9
	str	r0, [sp, #12]
.Ltmp39:
	.loc	3 710 9 is_stmt 1               @ rt-thread/components/utilities/ymodem/ymodem.c:710:9
	ldr	r0, [sp, #12]
.Ltmp40:
	.loc	3 710 9 is_stmt 0               @ rt-thread/components/utilities/ymodem/ymodem.c:710:9
	cbz	r0, .LBB3_4
	b	.LBB3_3
.LBB3_3:
.Ltmp41:
	.loc	3 711 9 is_stmt 1               @ rt-thread/components/utilities/ymodem/ymodem.c:711:9
	b	.LBB3_5
.Ltmp42:
.LBB3_4:
	.loc	3 713 24                        @ rt-thread/components/utilities/ymodem/ymodem.c:713:24
	ldr	r0, [sp, #28]
	.loc	3 713 29 is_stmt 0              @ rt-thread/components/utilities/ymodem/ymodem.c:713:29
	ldr	r1, [sp, #48]
	.loc	3 713 11                        @ rt-thread/components/utilities/ymodem/ymodem.c:713:11
	bl	_rym_do_send
	.loc	3 713 9                         @ rt-thread/components/utilities/ymodem/ymodem.c:713:9
	str	r0, [sp, #12]
	.loc	3 715 21 is_stmt 1              @ rt-thread/components/utilities/ymodem/ymodem.c:715:21
	ldr	r0, [sp, #24]
	.loc	3 715 5 is_stmt 0               @ rt-thread/components/utilities/ymodem/ymodem.c:715:5
	bl	rt_device_close
	b	.LBB3_5
.LBB3_5:
.Ltmp43:
	@DEBUG_LABEL: rym_send_on_device:__exit
	.loc	3 719 15 is_stmt 1              @ rt-thread/components/utilities/ymodem/ymodem.c:719:15
	bl	rt_hw_interrupt_disable
	.loc	3 719 13 is_stmt 0              @ rt-thread/components/utilities/ymodem/ymodem.c:719:13
	str	r0, [sp]
	.loc	3 720 20 is_stmt 1              @ rt-thread/components/utilities/ymodem/ymodem.c:720:20
	ldr	r0, [sp, #28]
	.loc	3 720 25 is_stmt 0              @ rt-thread/components/utilities/ymodem/ymodem.c:720:25
	adds	r0, #20
	.loc	3 720 5                         @ rt-thread/components/utilities/ymodem/ymodem.c:720:5
	bl	rt_sem_detach
	.loc	3 722 22 is_stmt 1              @ rt-thread/components/utilities/ymodem/ymodem.c:722:22
	ldrh.w	r0, [sp, #6]
	.loc	3 722 5 is_stmt 0               @ rt-thread/components/utilities/ymodem/ymodem.c:722:5
	ldr	r1, [sp, #24]
	.loc	3 722 20                        @ rt-thread/components/utilities/ymodem/ymodem.c:722:20
	strh	r0, [r1, #24]
	.loc	3 723 31 is_stmt 1              @ rt-thread/components/utilities/ymodem/ymodem.c:723:31
	ldr	r0, [sp, #24]
	.loc	3 723 36 is_stmt 0              @ rt-thread/components/utilities/ymodem/ymodem.c:723:36
	ldr	r1, [sp, #8]
	.loc	3 723 5                         @ rt-thread/components/utilities/ymodem/ymodem.c:723:5
	bl	rt_device_set_rx_indicate
	.loc	3 724 28 is_stmt 1              @ rt-thread/components/utilities/ymodem/ymodem.c:724:28
	ldr	r0, [sp]
	.loc	3 724 5 is_stmt 0               @ rt-thread/components/utilities/ymodem/ymodem.c:724:5
	bl	rt_hw_interrupt_enable
	.loc	3 726 18 is_stmt 1              @ rt-thread/components/utilities/ymodem/ymodem.c:726:18
	movw	r1, :lower16:_rym_the_ctx
	movt	r1, :upper16:_rym_the_ctx
	movs	r0, #0
	str	r0, [r1]
	.loc	3 728 12                        @ rt-thread/components/utilities/ymodem/ymodem.c:728:12
	ldr	r0, [sp, #12]
	.loc	3 728 5 is_stmt 0               @ rt-thread/components/utilities/ymodem/ymodem.c:728:5
	add	sp, #32
	pop	{r7, pc}
.Ltmp44:
.Lfunc_end3:
	.size	rym_send_on_device, .Lfunc_end3-rym_send_on_device
	.cfi_endproc
	.cantunwind
	.fnend
                                        @ -- End function
	.section	.text._rym_do_send,"ax",%progbits
	.p2align	3                               @ -- Begin function _rym_do_send
	.type	_rym_do_send,%function
	.code	16                              @ @_rym_do_send
	.thumb_func
_rym_do_send:
.Lfunc_begin4:
	.loc	3 584 0 is_stmt 1               @ rt-thread/components/utilities/ymodem/ymodem.c:584:0
	.fnstart
	.cfi_startproc
@ %bb.0:
	.save	{r7, lr}
	push	{r7, lr}
	.cfi_def_cfa_offset 8
	.cfi_offset lr, -4
	.cfi_offset r7, -8
	.pad	#16
	sub	sp, #16
	.cfi_def_cfa_offset 24
	str	r0, [sp, #8]
	str	r1, [sp, #4]
.Ltmp45:
	.loc	3 587 5 prologue_end            @ rt-thread/components/utilities/ymodem/ymodem.c:587:5
	ldr	r1, [sp, #8]
	movs	r0, #0
	.loc	3 587 16 is_stmt 0              @ rt-thread/components/utilities/ymodem/ymodem.c:587:16
	strb	r0, [r1, #12]
	movw	r0, #1029
	.loc	3 589 16 is_stmt 1              @ rt-thread/components/utilities/ymodem/ymodem.c:589:16
	bl	rt_malloc
	.loc	3 589 5 is_stmt 0               @ rt-thread/components/utilities/ymodem/ymodem.c:589:5
	ldr	r1, [sp, #8]
	.loc	3 589 14                        @ rt-thread/components/utilities/ymodem/ymodem.c:589:14
	str	r0, [r1, #16]
.Ltmp46:
	.loc	3 590 9 is_stmt 1               @ rt-thread/components/utilities/ymodem/ymodem.c:590:9
	ldr	r0, [sp, #8]
	.loc	3 590 14 is_stmt 0              @ rt-thread/components/utilities/ymodem/ymodem.c:590:14
	ldr	r0, [r0, #16]
.Ltmp47:
	.loc	3 590 9                         @ rt-thread/components/utilities/ymodem/ymodem.c:590:9
	cbnz	r0, .LBB4_2
	b	.LBB4_1
.LBB4_1:
	.loc	3 0 9                           @ rt-thread/components/utilities/ymodem/ymodem.c:0:9
	mvn	r0, #4
.Ltmp48:
	.loc	3 591 9 is_stmt 1               @ rt-thread/components/utilities/ymodem/ymodem.c:591:9
	str	r0, [sp, #12]
	b	.LBB4_9
.Ltmp49:
.LBB4_2:
	.loc	3 593 34                        @ rt-thread/components/utilities/ymodem/ymodem.c:593:34
	ldr	r0, [sp, #8]
	.loc	3 593 39 is_stmt 0              @ rt-thread/components/utilities/ymodem/ymodem.c:593:39
	ldr	r1, [sp, #4]
	.loc	3 593 11                        @ rt-thread/components/utilities/ymodem/ymodem.c:593:11
	bl	_rym_do_send_handshake
	.loc	3 593 9                         @ rt-thread/components/utilities/ymodem/ymodem.c:593:9
	str	r0, [sp]
.Ltmp50:
	.loc	3 594 9 is_stmt 1               @ rt-thread/components/utilities/ymodem/ymodem.c:594:9
	ldr	r0, [sp]
.Ltmp51:
	.loc	3 594 9 is_stmt 0               @ rt-thread/components/utilities/ymodem/ymodem.c:594:9
	cbz	r0, .LBB4_4
	b	.LBB4_3
.LBB4_3:
.Ltmp52:
	.loc	3 596 17 is_stmt 1              @ rt-thread/components/utilities/ymodem/ymodem.c:596:17
	ldr	r0, [sp, #8]
	.loc	3 596 22 is_stmt 0              @ rt-thread/components/utilities/ymodem/ymodem.c:596:22
	ldr	r0, [r0, #16]
	.loc	3 596 9                         @ rt-thread/components/utilities/ymodem/ymodem.c:596:9
	bl	rt_free
	.loc	3 597 16 is_stmt 1              @ rt-thread/components/utilities/ymodem/ymodem.c:597:16
	ldr	r0, [sp]
	.loc	3 597 9 is_stmt 0               @ rt-thread/components/utilities/ymodem/ymodem.c:597:9
	str	r0, [sp, #12]
	b	.LBB4_9
.Ltmp53:
.LBB4_4:
	.loc	3 600 30 is_stmt 1              @ rt-thread/components/utilities/ymodem/ymodem.c:600:30
	ldr	r0, [sp, #8]
	.loc	3 600 11 is_stmt 0              @ rt-thread/components/utilities/ymodem/ymodem.c:600:11
	bl	_rym_do_send_trans
	.loc	3 600 9                         @ rt-thread/components/utilities/ymodem/ymodem.c:600:9
	str	r0, [sp]
.Ltmp54:
	.loc	3 601 9 is_stmt 1               @ rt-thread/components/utilities/ymodem/ymodem.c:601:9
	ldr	r0, [sp]
.Ltmp55:
	.loc	3 601 9 is_stmt 0               @ rt-thread/components/utilities/ymodem/ymodem.c:601:9
	cbz	r0, .LBB4_6
	b	.LBB4_5
.LBB4_5:
.Ltmp56:
	.loc	3 603 17 is_stmt 1              @ rt-thread/components/utilities/ymodem/ymodem.c:603:17
	ldr	r0, [sp, #8]
	.loc	3 603 22 is_stmt 0              @ rt-thread/components/utilities/ymodem/ymodem.c:603:22
	ldr	r0, [r0, #16]
	.loc	3 603 9                         @ rt-thread/components/utilities/ymodem/ymodem.c:603:9
	bl	rt_free
	.loc	3 604 16 is_stmt 1              @ rt-thread/components/utilities/ymodem/ymodem.c:604:16
	ldr	r0, [sp]
	.loc	3 604 9 is_stmt 0               @ rt-thread/components/utilities/ymodem/ymodem.c:604:9
	str	r0, [sp, #12]
	b	.LBB4_9
.Ltmp57:
.LBB4_6:
	.loc	3 607 28 is_stmt 1              @ rt-thread/components/utilities/ymodem/ymodem.c:607:28
	ldr	r0, [sp, #8]
	.loc	3 607 11 is_stmt 0              @ rt-thread/components/utilities/ymodem/ymodem.c:607:11
	bl	_rym_do_send_fin
	.loc	3 607 9                         @ rt-thread/components/utilities/ymodem/ymodem.c:607:9
	str	r0, [sp]
.Ltmp58:
	.loc	3 608 9 is_stmt 1               @ rt-thread/components/utilities/ymodem/ymodem.c:608:9
	ldr	r0, [sp]
.Ltmp59:
	.loc	3 608 9 is_stmt 0               @ rt-thread/components/utilities/ymodem/ymodem.c:608:9
	cbz	r0, .LBB4_8
	b	.LBB4_7
.LBB4_7:
.Ltmp60:
	.loc	3 610 17 is_stmt 1              @ rt-thread/components/utilities/ymodem/ymodem.c:610:17
	ldr	r0, [sp, #8]
	.loc	3 610 22 is_stmt 0              @ rt-thread/components/utilities/ymodem/ymodem.c:610:22
	ldr	r0, [r0, #16]
	.loc	3 610 9                         @ rt-thread/components/utilities/ymodem/ymodem.c:610:9
	bl	rt_free
	.loc	3 611 16 is_stmt 1              @ rt-thread/components/utilities/ymodem/ymodem.c:611:16
	ldr	r0, [sp]
	.loc	3 611 9 is_stmt 0               @ rt-thread/components/utilities/ymodem/ymodem.c:611:9
	str	r0, [sp, #12]
	b	.LBB4_9
.Ltmp61:
.LBB4_8:
	.loc	3 614 13 is_stmt 1              @ rt-thread/components/utilities/ymodem/ymodem.c:614:13
	ldr	r0, [sp, #8]
	.loc	3 614 18 is_stmt 0              @ rt-thread/components/utilities/ymodem/ymodem.c:614:18
	ldr	r0, [r0, #16]
	.loc	3 614 5                         @ rt-thread/components/utilities/ymodem/ymodem.c:614:5
	bl	rt_free
	.loc	3 615 12 is_stmt 1              @ rt-thread/components/utilities/ymodem/ymodem.c:615:12
	ldr	r0, [sp]
	.loc	3 615 5 is_stmt 0               @ rt-thread/components/utilities/ymodem/ymodem.c:615:5
	str	r0, [sp, #12]
	b	.LBB4_9
.LBB4_9:
	.loc	3 616 1 is_stmt 1               @ rt-thread/components/utilities/ymodem/ymodem.c:616:1
	ldr	r0, [sp, #12]
	add	sp, #16
	pop	{r7, pc}
.Ltmp62:
.Lfunc_end4:
	.size	_rym_do_send, .Lfunc_end4-_rym_do_send
	.cfi_endproc
	.cantunwind
	.fnend
                                        @ -- End function
	.section	.text._rym_do_handshake,"ax",%progbits
	.p2align	3                               @ -- Begin function _rym_do_handshake
	.type	_rym_do_handshake,%function
	.code	16                              @ @_rym_do_handshake
	.thumb_func
_rym_do_handshake:
.Lfunc_begin5:
	.loc	3 190 0                         @ rt-thread/components/utilities/ymodem/ymodem.c:190:0
	.fnstart
	.cfi_startproc
@ %bb.0:
	.save	{r7, lr}
	push	{r7, lr}
	.cfi_def_cfa_offset 8
	.cfi_offset lr, -4
	.cfi_offset r7, -8
	.pad	#48
	sub	sp, #48
	.cfi_def_cfa_offset 56
	str	r0, [sp, #40]
	str	r1, [sp, #36]
.Ltmp63:
	.loc	3 197 5 prologue_end            @ rt-thread/components/utilities/ymodem/ymodem.c:197:5
	ldr	r1, [sp, #40]
	movs	r0, #1
	.loc	3 197 16 is_stmt 0              @ rt-thread/components/utilities/ymodem/ymodem.c:197:16
	strb	r0, [r1, #12]
	movs	r0, #0
.Ltmp64:
	.loc	3 199 12 is_stmt 1              @ rt-thread/components/utilities/ymodem/ymodem.c:199:12
	str	r0, [sp, #28]
	.loc	3 199 10 is_stmt 0              @ rt-thread/components/utilities/ymodem/ymodem.c:199:10
	b	.LBB5_1
.LBB5_1:                                @ =>This Inner Loop Header: Depth=1
.Ltmp65:
	.loc	3 199 17                        @ rt-thread/components/utilities/ymodem/ymodem.c:199:17
	ldr	r0, [sp, #28]
	.loc	3 199 21                        @ rt-thread/components/utilities/ymodem/ymodem.c:199:21
	ldr	r1, [sp, #36]
.Ltmp66:
	.loc	3 199 5                         @ rt-thread/components/utilities/ymodem/ymodem.c:199:5
	cmp	r0, r1
	bhs	.LBB5_9
	b	.LBB5_2
.LBB5_2:                                @   in Loop: Header=BB5_1 Depth=1
.Ltmp67:
	.loc	3 201 22 is_stmt 1              @ rt-thread/components/utilities/ymodem/ymodem.c:201:22
	ldr	r0, [sp, #40]
	movs	r1, #67
	.loc	3 201 9 is_stmt 0               @ rt-thread/components/utilities/ymodem/ymodem.c:201:9
	bl	_rym_putchar
	.loc	3 202 31 is_stmt 1              @ rt-thread/components/utilities/ymodem/ymodem.c:202:31
	ldr	r0, [sp, #40]
	movw	r1, #3000
	.loc	3 202 16 is_stmt 0              @ rt-thread/components/utilities/ymodem/ymodem.c:202:16
	bl	_rym_read_code
	.loc	3 202 14                        @ rt-thread/components/utilities/ymodem/ymodem.c:202:14
	strb.w	r0, [sp, #35]
.Ltmp68:
	.loc	3 204 13 is_stmt 1              @ rt-thread/components/utilities/ymodem/ymodem.c:204:13
	ldrb.w	r0, [sp, #35]
.Ltmp69:
	.loc	3 204 13 is_stmt 0              @ rt-thread/components/utilities/ymodem/ymodem.c:204:13
	cmp	r0, #1
	bne	.LBB5_4
	b	.LBB5_3
.LBB5_3:
	.loc	3 0 13                          @ rt-thread/components/utilities/ymodem/ymodem.c:0:13
	movs	r0, #133
.Ltmp70:
	.loc	3 206 21 is_stmt 1              @ rt-thread/components/utilities/ymodem/ymodem.c:206:21
	str	r0, [sp, #20]
	.loc	3 207 13                        @ rt-thread/components/utilities/ymodem/ymodem.c:207:13
	b	.LBB5_9
.Ltmp71:
.LBB5_4:                                @   in Loop: Header=BB5_1 Depth=1
	.loc	3 209 18                        @ rt-thread/components/utilities/ymodem/ymodem.c:209:18
	ldrb.w	r0, [sp, #35]
.Ltmp72:
	.loc	3 209 18 is_stmt 0              @ rt-thread/components/utilities/ymodem/ymodem.c:209:18
	cmp	r0, #2
	bne	.LBB5_6
	b	.LBB5_5
.LBB5_5:
	.loc	3 0 18                          @ rt-thread/components/utilities/ymodem/ymodem.c:0:18
	movw	r0, #1029
.Ltmp73:
	.loc	3 211 21 is_stmt 1              @ rt-thread/components/utilities/ymodem/ymodem.c:211:21
	str	r0, [sp, #20]
	.loc	3 212 13                        @ rt-thread/components/utilities/ymodem/ymodem.c:212:13
	b	.LBB5_9
.Ltmp74:
.LBB5_6:                                @   in Loop: Header=BB5_1 Depth=1
	.loc	3 0 13 is_stmt 0                @ rt-thread/components/utilities/ymodem/ymodem.c:0:13
	b	.LBB5_7
.LBB5_7:                                @   in Loop: Header=BB5_1 Depth=1
	.loc	3 214 5 is_stmt 1               @ rt-thread/components/utilities/ymodem/ymodem.c:214:5
	b	.LBB5_8
.Ltmp75:
.LBB5_8:                                @   in Loop: Header=BB5_1 Depth=1
	.loc	3 199 30                        @ rt-thread/components/utilities/ymodem/ymodem.c:199:30
	ldr	r0, [sp, #28]
	adds	r0, #1
	str	r0, [sp, #28]
	.loc	3 199 5 is_stmt 0               @ rt-thread/components/utilities/ymodem/ymodem.c:199:5
	b	.LBB5_1
.Ltmp76:
.LBB5_9:
	.loc	3 215 9 is_stmt 1               @ rt-thread/components/utilities/ymodem/ymodem.c:215:9
	ldr	r0, [sp, #28]
	.loc	3 215 14 is_stmt 0              @ rt-thread/components/utilities/ymodem/ymodem.c:215:14
	ldr	r1, [sp, #36]
.Ltmp77:
	.loc	3 215 9                         @ rt-thread/components/utilities/ymodem/ymodem.c:215:9
	cmp	r0, r1
	bne	.LBB5_11
	b	.LBB5_10
.LBB5_10:
	.loc	3 0 9                           @ rt-thread/components/utilities/ymodem/ymodem.c:0:9
	mvn	r0, #111
.Ltmp78:
	.loc	3 217 9 is_stmt 1               @ rt-thread/components/utilities/ymodem/ymodem.c:217:9
	str	r0, [sp, #44]
	b	.LBB5_27
.Ltmp79:
.LBB5_11:
	.loc	3 0 9 is_stmt 0                 @ rt-thread/components/utilities/ymodem/ymodem.c:0:9
	movs	r0, #0
	.loc	3 221 7 is_stmt 1               @ rt-thread/components/utilities/ymodem/ymodem.c:221:7
	str	r0, [sp, #28]
	.loc	3 223 12                        @ rt-thread/components/utilities/ymodem/ymodem.c:223:12
	bl	rt_tick_get
	.loc	3 223 10 is_stmt 0              @ rt-thread/components/utilities/ymodem/ymodem.c:223:10
	str	r0, [sp, #16]
	.loc	3 224 5 is_stmt 1               @ rt-thread/components/utilities/ymodem/ymodem.c:224:5
	b	.LBB5_12
.LBB5_12:                               @ =>This Inner Loop Header: Depth=1
	.loc	3 224 12 is_stmt 0              @ rt-thread/components/utilities/ymodem/ymodem.c:224:12
	bl	rt_tick_get
	.loc	3 224 30                        @ rt-thread/components/utilities/ymodem/ymodem.c:224:30
	str	r0, [sp, #4]                    @ 4-byte Spill
	ldr	r0, [sp, #16]
	.loc	3 224 37                        @ rt-thread/components/utilities/ymodem/ymodem.c:224:37
	str	r0, [sp, #8]                    @ 4-byte Spill
	movs	r0, #100
	bl	rt_tick_from_millisecond
	ldr	r1, [sp, #4]                    @ 4-byte Reload
	mov	r2, r0
	.loc	3 224 35                        @ rt-thread/components/utilities/ymodem/ymodem.c:224:35
	ldr	r0, [sp, #8]                    @ 4-byte Reload
	add	r2, r0
	movs	r0, #0
	.loc	3 224 68                        @ rt-thread/components/utilities/ymodem/ymodem.c:224:68
	cmp	r1, r2
	str	r0, [sp, #12]                   @ 4-byte Spill
	bhi	.LBB5_14
	b	.LBB5_13
.LBB5_13:                               @   in Loop: Header=BB5_12 Depth=1
	.loc	3 224 71                        @ rt-thread/components/utilities/ymodem/ymodem.c:224:71
	ldr	r1, [sp, #28]
	.loc	3 224 76                        @ rt-thread/components/utilities/ymodem/ymodem.c:224:76
	ldr	r0, [sp, #20]
	.loc	3 224 84                        @ rt-thread/components/utilities/ymodem/ymodem.c:224:84
	subs	r2, r0, #1
	movs	r0, #0
	.loc	3 224 73                        @ rt-thread/components/utilities/ymodem/ymodem.c:224:73
	cmp	r1, r2
	it	lo
	movlo	r0, #1
	str	r0, [sp, #12]                   @ 4-byte Spill
	b	.LBB5_14
.LBB5_14:                               @   in Loop: Header=BB5_12 Depth=1
	.loc	3 0 0                           @ rt-thread/components/utilities/ymodem/ymodem.c:0:0
	ldr	r0, [sp, #12]                   @ 4-byte Reload
	.loc	3 224 5                         @ rt-thread/components/utilities/ymodem/ymodem.c:224:5
	lsls	r0, r0, #31
	cbz	r0, .LBB5_16
	b	.LBB5_15
.LBB5_15:                               @   in Loop: Header=BB5_12 Depth=1
.Ltmp80:
	.loc	3 226 29 is_stmt 1              @ rt-thread/components/utilities/ymodem/ymodem.c:226:29
	ldr	r0, [sp, #40]
	.loc	3 226 34 is_stmt 0              @ rt-thread/components/utilities/ymodem/ymodem.c:226:34
	ldr	r1, [sp, #20]
	.loc	3 226 42                        @ rt-thread/components/utilities/ymodem/ymodem.c:226:42
	subs	r1, #1
	.loc	3 226 14                        @ rt-thread/components/utilities/ymodem/ymodem.c:226:14
	bl	_rym_read_data
	mov	r1, r0
	.loc	3 226 11                        @ rt-thread/components/utilities/ymodem/ymodem.c:226:11
	ldr	r0, [sp, #28]
	add	r0, r1
	str	r0, [sp, #28]
	movs	r0, #5
	.loc	3 227 9 is_stmt 1               @ rt-thread/components/utilities/ymodem/ymodem.c:227:9
	bl	rt_thread_mdelay
.Ltmp81:
	.loc	3 224 5                         @ rt-thread/components/utilities/ymodem/ymodem.c:224:5
	b	.LBB5_12
.LBB5_16:
.Ltmp82:
	.loc	3 230 9                         @ rt-thread/components/utilities/ymodem/ymodem.c:230:9
	ldr	r0, [sp, #28]
	.loc	3 230 15 is_stmt 0              @ rt-thread/components/utilities/ymodem/ymodem.c:230:15
	ldr	r1, [sp, #20]
	.loc	3 230 23                        @ rt-thread/components/utilities/ymodem/ymodem.c:230:23
	subs	r1, #1
.Ltmp83:
	.loc	3 230 9                         @ rt-thread/components/utilities/ymodem/ymodem.c:230:9
	cmp	r0, r1
	beq	.LBB5_18
	b	.LBB5_17
.LBB5_17:
	.loc	3 0 9                           @ rt-thread/components/utilities/ymodem/ymodem.c:0:9
	mvn	r0, #115
.Ltmp84:
	.loc	3 231 9 is_stmt 1               @ rt-thread/components/utilities/ymodem/ymodem.c:231:9
	str	r0, [sp, #44]
	b	.LBB5_27
.Ltmp85:
.LBB5_18:
	.loc	3 234 9                         @ rt-thread/components/utilities/ymodem/ymodem.c:234:9
	ldr	r0, [sp, #40]
	.loc	3 234 14 is_stmt 0              @ rt-thread/components/utilities/ymodem/ymodem.c:234:14
	ldr	r0, [r0, #16]
	.loc	3 234 9                         @ rt-thread/components/utilities/ymodem/ymodem.c:234:9
	ldrb	r0, [r0, #1]
	.loc	3 234 26                        @ rt-thread/components/utilities/ymodem/ymodem.c:234:26
	cbnz	r0, .LBB5_20
	b	.LBB5_19
.LBB5_19:
	.loc	3 234 29                        @ rt-thread/components/utilities/ymodem/ymodem.c:234:29
	ldr	r0, [sp, #40]
	.loc	3 234 34                        @ rt-thread/components/utilities/ymodem/ymodem.c:234:34
	ldr	r0, [r0, #16]
	.loc	3 234 29                        @ rt-thread/components/utilities/ymodem/ymodem.c:234:29
	ldrb	r0, [r0, #2]
.Ltmp86:
	.loc	3 234 9                         @ rt-thread/components/utilities/ymodem/ymodem.c:234:9
	cmp	r0, #255
	beq	.LBB5_21
	b	.LBB5_20
.LBB5_20:
	.loc	3 0 9                           @ rt-thread/components/utilities/ymodem/ymodem.c:0:9
	mvn	r0, #113
.Ltmp87:
	.loc	3 235 9 is_stmt 1               @ rt-thread/components/utilities/ymodem/ymodem.c:235:9
	str	r0, [sp, #44]
	b	.LBB5_27
.Ltmp88:
.LBB5_21:
	.loc	3 237 32                        @ rt-thread/components/utilities/ymodem/ymodem.c:237:32
	ldr	r0, [sp, #40]
	.loc	3 237 37 is_stmt 0              @ rt-thread/components/utilities/ymodem/ymodem.c:237:37
	ldr	r0, [r0, #16]
	.loc	3 237 43                        @ rt-thread/components/utilities/ymodem/ymodem.c:237:43
	ldr	r1, [sp, #20]
	.loc	3 237 41                        @ rt-thread/components/utilities/ymodem/ymodem.c:237:41
	add	r0, r1
	.loc	3 237 30                        @ rt-thread/components/utilities/ymodem/ymodem.c:237:30
	ldrb	r1, [r0, #-2]
	.loc	3 237 64                        @ rt-thread/components/utilities/ymodem/ymodem.c:237:64
	ldrb	r0, [r0, #-1]
	.loc	3 237 62                        @ rt-thread/components/utilities/ymodem/ymodem.c:237:62
	orr.w	r0, r0, r1, lsl #8
	.loc	3 237 14                        @ rt-thread/components/utilities/ymodem/ymodem.c:237:14
	strh.w	r0, [sp, #26]
	.loc	3 238 21 is_stmt 1              @ rt-thread/components/utilities/ymodem/ymodem.c:238:21
	ldr	r0, [sp, #40]
	.loc	3 238 26 is_stmt 0              @ rt-thread/components/utilities/ymodem/ymodem.c:238:26
	ldr	r0, [r0, #16]
	.loc	3 238 30                        @ rt-thread/components/utilities/ymodem/ymodem.c:238:30
	adds	r0, #3
	.loc	3 238 35                        @ rt-thread/components/utilities/ymodem/ymodem.c:238:35
	ldr	r1, [sp, #20]
	.loc	3 238 43                        @ rt-thread/components/utilities/ymodem/ymodem.c:238:43
	subs	r1, #5
	.loc	3 238 15                        @ rt-thread/components/utilities/ymodem/ymodem.c:238:15
	bl	CRC16
	.loc	3 238 13                        @ rt-thread/components/utilities/ymodem/ymodem.c:238:13
	strh.w	r0, [sp, #24]
.Ltmp89:
	.loc	3 239 9 is_stmt 1               @ rt-thread/components/utilities/ymodem/ymodem.c:239:9
	ldrh.w	r0, [sp, #26]
	.loc	3 239 21 is_stmt 0              @ rt-thread/components/utilities/ymodem/ymodem.c:239:21
	ldrh.w	r1, [sp, #24]
.Ltmp90:
	.loc	3 239 9                         @ rt-thread/components/utilities/ymodem/ymodem.c:239:9
	cmp	r0, r1
	beq	.LBB5_23
	b	.LBB5_22
.LBB5_22:
	.loc	3 0 9                           @ rt-thread/components/utilities/ymodem/ymodem.c:0:9
	mvn	r0, #114
.Ltmp91:
	.loc	3 240 9 is_stmt 1               @ rt-thread/components/utilities/ymodem/ymodem.c:240:9
	str	r0, [sp, #44]
	b	.LBB5_27
.Ltmp92:
.LBB5_23:
	.loc	3 243 9                         @ rt-thread/components/utilities/ymodem/ymodem.c:243:9
	ldr	r0, [sp, #40]
	.loc	3 243 14 is_stmt 0              @ rt-thread/components/utilities/ymodem/ymodem.c:243:14
	ldr	r0, [r0, #4]
	.loc	3 243 23                        @ rt-thread/components/utilities/ymodem/ymodem.c:243:23
	cbz	r0, .LBB5_26
	b	.LBB5_24
.LBB5_24:
	.loc	3 243 26                        @ rt-thread/components/utilities/ymodem/ymodem.c:243:26
	ldr	r0, [sp, #40]
	.loc	3 243 31                        @ rt-thread/components/utilities/ymodem/ymodem.c:243:31
	ldr	r3, [r0, #4]
	.loc	3 243 50                        @ rt-thread/components/utilities/ymodem/ymodem.c:243:50
	ldr	r1, [r0, #16]
	.loc	3 243 54                        @ rt-thread/components/utilities/ymodem/ymodem.c:243:54
	adds	r1, #3
	.loc	3 243 59                        @ rt-thread/components/utilities/ymodem/ymodem.c:243:59
	ldr	r2, [sp, #20]
	.loc	3 243 67                        @ rt-thread/components/utilities/ymodem/ymodem.c:243:67
	subs	r2, #5
	.loc	3 243 26                        @ rt-thread/components/utilities/ymodem/ymodem.c:243:26
	blx	r3
.Ltmp93:
	.loc	3 243 9                         @ rt-thread/components/utilities/ymodem/ymodem.c:243:9
	cmp	r0, #6
	beq	.LBB5_26
	b	.LBB5_25
.LBB5_25:
	.loc	3 0 9                           @ rt-thread/components/utilities/ymodem/ymodem.c:0:9
	mvn	r0, #116
.Ltmp94:
	.loc	3 244 9 is_stmt 1               @ rt-thread/components/utilities/ymodem/ymodem.c:244:9
	str	r0, [sp, #44]
	b	.LBB5_27
.Ltmp95:
.LBB5_26:
	.loc	3 0 9 is_stmt 0                 @ rt-thread/components/utilities/ymodem/ymodem.c:0:9
	movs	r0, #0
	.loc	3 246 5 is_stmt 1               @ rt-thread/components/utilities/ymodem/ymodem.c:246:5
	str	r0, [sp, #44]
	b	.LBB5_27
.LBB5_27:
	.loc	3 247 1                         @ rt-thread/components/utilities/ymodem/ymodem.c:247:1
	ldr	r0, [sp, #44]
	add	sp, #48
	pop	{r7, pc}
.Ltmp96:
.Lfunc_end5:
	.size	_rym_do_handshake, .Lfunc_end5-_rym_do_handshake
	.cfi_endproc
	.cantunwind
	.fnend
                                        @ -- End function
	.section	.text._rym_do_trans,"ax",%progbits
	.p2align	3                               @ -- Begin function _rym_do_trans
	.type	_rym_do_trans,%function
	.code	16                              @ @_rym_do_trans
	.thumb_func
_rym_do_trans:
.Lfunc_begin6:
	.loc	3 348 0                         @ rt-thread/components/utilities/ymodem/ymodem.c:348:0
	.fnstart
	.cfi_startproc
@ %bb.0:
	.save	{r7, lr}
	push	{r7, lr}
	.cfi_def_cfa_offset 8
	.cfi_offset lr, -4
	.cfi_offset r7, -8
	.pad	#32
	sub	sp, #32
	.cfi_def_cfa_offset 40
	str	r0, [sp, #24]
.Ltmp97:
	.loc	3 349 18 prologue_end           @ rt-thread/components/utilities/ymodem/ymodem.c:349:18
	ldr	r0, [sp, #24]
	movs	r1, #6
	.loc	3 349 5 is_stmt 0               @ rt-thread/components/utilities/ymodem/ymodem.c:349:5
	bl	_rym_putchar
	.loc	3 350 18 is_stmt 1              @ rt-thread/components/utilities/ymodem/ymodem.c:350:18
	ldr	r0, [sp, #24]
	movs	r1, #67
	.loc	3 350 5 is_stmt 0               @ rt-thread/components/utilities/ymodem/ymodem.c:350:5
	bl	_rym_putchar
	.loc	3 351 5 is_stmt 1               @ rt-thread/components/utilities/ymodem/ymodem.c:351:5
	ldr	r1, [sp, #24]
	movs	r0, #2
	.loc	3 351 16 is_stmt 0              @ rt-thread/components/utilities/ymodem/ymodem.c:351:16
	strb	r0, [r1, #12]
	.loc	3 353 5 is_stmt 1               @ rt-thread/components/utilities/ymodem/ymodem.c:353:5
	b	.LBB6_1
.LBB6_1:                                @ =>This Inner Loop Header: Depth=1
.Ltmp98:
	.loc	3 359 31                        @ rt-thread/components/utilities/ymodem/ymodem.c:359:31
	ldr	r0, [sp, #24]
	movw	r1, #3000
	.loc	3 359 16 is_stmt 0              @ rt-thread/components/utilities/ymodem/ymodem.c:359:16
	bl	_rym_read_code
	.loc	3 359 14                        @ rt-thread/components/utilities/ymodem/ymodem.c:359:14
	strb.w	r0, [sp, #19]
	.loc	3 361 17 is_stmt 1              @ rt-thread/components/utilities/ymodem/ymodem.c:361:17
	ldrb.w	r0, [sp, #19]
	.loc	3 361 9 is_stmt 0               @ rt-thread/components/utilities/ymodem/ymodem.c:361:9
	mov	r1, r0
	str	r1, [sp, #4]                    @ 4-byte Spill
	cmp	r0, #1
	beq	.LBB6_4
	b	.LBB6_2
.LBB6_2:                                @   in Loop: Header=BB6_1 Depth=1
	ldr	r0, [sp, #4]                    @ 4-byte Reload
	cmp	r0, #2
	beq	.LBB6_5
	b	.LBB6_3
.LBB6_3:
	ldr	r0, [sp, #4]                    @ 4-byte Reload
	cmp	r0, #4
	beq	.LBB6_6
	b	.LBB6_7
.LBB6_4:                                @   in Loop: Header=BB6_1 Depth=1
	.loc	3 0 9                           @ rt-thread/components/utilities/ymodem/ymodem.c:0:9
	movs	r0, #128
.Ltmp99:
	.loc	3 364 21 is_stmt 1              @ rt-thread/components/utilities/ymodem/ymodem.c:364:21
	str	r0, [sp, #12]
	.loc	3 365 13                        @ rt-thread/components/utilities/ymodem/ymodem.c:365:13
	b	.LBB6_8
.LBB6_5:                                @   in Loop: Header=BB6_1 Depth=1
	.loc	3 0 13 is_stmt 0                @ rt-thread/components/utilities/ymodem/ymodem.c:0:13
	mov.w	r0, #1024
	.loc	3 367 21 is_stmt 1              @ rt-thread/components/utilities/ymodem/ymodem.c:367:21
	str	r0, [sp, #12]
	.loc	3 368 13                        @ rt-thread/components/utilities/ymodem/ymodem.c:368:13
	b	.LBB6_8
.LBB6_6:
	.loc	3 0 13 is_stmt 0                @ rt-thread/components/utilities/ymodem/ymodem.c:0:13
	movs	r0, #0
	.loc	3 370 13 is_stmt 1              @ rt-thread/components/utilities/ymodem/ymodem.c:370:13
	str	r0, [sp, #28]
	b	.LBB6_20
.LBB6_7:
	.loc	3 0 13 is_stmt 0                @ rt-thread/components/utilities/ymodem/ymodem.c:0:13
	mvn	r0, #112
	.loc	3 372 13 is_stmt 1              @ rt-thread/components/utilities/ymodem/ymodem.c:372:13
	str	r0, [sp, #28]
	b	.LBB6_20
.Ltmp100:
.LBB6_8:                                @   in Loop: Header=BB6_1 Depth=1
	.loc	3 375 31                        @ rt-thread/components/utilities/ymodem/ymodem.c:375:31
	ldr	r0, [sp, #24]
	.loc	3 375 36 is_stmt 0              @ rt-thread/components/utilities/ymodem/ymodem.c:375:36
	ldr	r1, [sp, #12]
	add.w	r2, sp, #19
	.loc	3 375 15                        @ rt-thread/components/utilities/ymodem/ymodem.c:375:15
	bl	_rym_trans_data
	.loc	3 375 13                        @ rt-thread/components/utilities/ymodem/ymodem.c:375:13
	str	r0, [sp, #20]
.Ltmp101:
	.loc	3 376 13 is_stmt 1              @ rt-thread/components/utilities/ymodem/ymodem.c:376:13
	ldr	r0, [sp, #20]
.Ltmp102:
	.loc	3 376 13 is_stmt 0              @ rt-thread/components/utilities/ymodem/ymodem.c:376:13
	cbz	r0, .LBB6_10
	b	.LBB6_9
.LBB6_9:
.Ltmp103:
	.loc	3 377 20 is_stmt 1              @ rt-thread/components/utilities/ymodem/ymodem.c:377:20
	ldr	r0, [sp, #20]
	.loc	3 377 13 is_stmt 0              @ rt-thread/components/utilities/ymodem/ymodem.c:377:13
	str	r0, [sp, #28]
	b	.LBB6_20
.Ltmp104:
.LBB6_10:                               @   in Loop: Header=BB6_1 Depth=1
	.loc	3 378 17 is_stmt 1              @ rt-thread/components/utilities/ymodem/ymodem.c:378:17
	ldrb.w	r0, [sp, #19]
	.loc	3 378 9 is_stmt 0               @ rt-thread/components/utilities/ymodem/ymodem.c:378:9
	mov	r1, r0
	str	r1, [sp]                        @ 4-byte Spill
	cmp	r0, #6
	beq	.LBB6_17
	b	.LBB6_11
.LBB6_11:                               @   in Loop: Header=BB6_1 Depth=1
	ldr	r0, [sp]                        @ 4-byte Reload
	cmp	r0, #24
	bne	.LBB6_18
	b	.LBB6_12
.LBB6_12:
	.loc	3 0 9                           @ rt-thread/components/utilities/ymodem/ymodem.c:0:9
	movs	r0, #0
.Ltmp105:
	.loc	3 382 20 is_stmt 1              @ rt-thread/components/utilities/ymodem/ymodem.c:382:20
	str	r0, [sp, #8]
	.loc	3 382 18 is_stmt 0              @ rt-thread/components/utilities/ymodem/ymodem.c:382:18
	b	.LBB6_13
.LBB6_13:                               @ =>This Inner Loop Header: Depth=1
.Ltmp106:
	.loc	3 382 25                        @ rt-thread/components/utilities/ymodem/ymodem.c:382:25
	ldr	r0, [sp, #8]
.Ltmp107:
	.loc	3 382 13                        @ rt-thread/components/utilities/ymodem/ymodem.c:382:13
	cmp	r0, #6
	bhi	.LBB6_16
	b	.LBB6_14
.LBB6_14:                               @   in Loop: Header=BB6_13 Depth=1
.Ltmp108:
	.loc	3 384 30 is_stmt 1              @ rt-thread/components/utilities/ymodem/ymodem.c:384:30
	ldr	r0, [sp, #24]
	movs	r1, #24
	.loc	3 384 17 is_stmt 0              @ rt-thread/components/utilities/ymodem/ymodem.c:384:17
	bl	_rym_putchar
	.loc	3 385 13 is_stmt 1              @ rt-thread/components/utilities/ymodem/ymodem.c:385:13
	b	.LBB6_15
.Ltmp109:
.LBB6_15:                               @   in Loop: Header=BB6_13 Depth=1
	.loc	3 382 60                        @ rt-thread/components/utilities/ymodem/ymodem.c:382:60
	ldr	r0, [sp, #8]
	adds	r0, #1
	str	r0, [sp, #8]
	.loc	3 382 13 is_stmt 0              @ rt-thread/components/utilities/ymodem/ymodem.c:382:13
	b	.LBB6_13
.Ltmp110:
.LBB6_16:
	.loc	3 0 13                          @ rt-thread/components/utilities/ymodem/ymodem.c:0:13
	mvn	r0, #116
	.loc	3 386 13 is_stmt 1              @ rt-thread/components/utilities/ymodem/ymodem.c:386:13
	str	r0, [sp, #28]
	b	.LBB6_20
.LBB6_17:                               @   in Loop: Header=BB6_1 Depth=1
	.loc	3 388 26                        @ rt-thread/components/utilities/ymodem/ymodem.c:388:26
	ldr	r0, [sp, #24]
	movs	r1, #6
	.loc	3 388 13 is_stmt 0              @ rt-thread/components/utilities/ymodem/ymodem.c:388:13
	bl	_rym_putchar
	.loc	3 389 13 is_stmt 1              @ rt-thread/components/utilities/ymodem/ymodem.c:389:13
	b	.LBB6_19
.LBB6_18:                               @   in Loop: Header=BB6_1 Depth=1
	.loc	3 392 13                        @ rt-thread/components/utilities/ymodem/ymodem.c:392:13
	b	.LBB6_19
.Ltmp111:
.LBB6_19:                               @   in Loop: Header=BB6_1 Depth=1
	.loc	3 353 5                         @ rt-thread/components/utilities/ymodem/ymodem.c:353:5
	b	.LBB6_1
.LBB6_20:
	.loc	3 395 1                         @ rt-thread/components/utilities/ymodem/ymodem.c:395:1
	ldr	r0, [sp, #28]
	add	sp, #32
	pop	{r7, pc}
.Ltmp112:
.Lfunc_end6:
	.size	_rym_do_trans, .Lfunc_end6-_rym_do_trans
	.cfi_endproc
	.cantunwind
	.fnend
                                        @ -- End function
	.section	.text._rym_do_fin,"ax",%progbits
	.p2align	3                               @ -- Begin function _rym_do_fin
	.type	_rym_do_fin,%function
	.code	16                              @ @_rym_do_fin
	.thumb_func
_rym_do_fin:
.Lfunc_begin7:
	.loc	3 433 0                         @ rt-thread/components/utilities/ymodem/ymodem.c:433:0
	.fnstart
	.cfi_startproc
@ %bb.0:
	.save	{r7, lr}
	push	{r7, lr}
	.cfi_def_cfa_offset 8
	.cfi_offset lr, -4
	.cfi_offset r7, -8
	.pad	#24
	sub	sp, #24
	.cfi_def_cfa_offset 32
	str	r0, [sp, #16]
.Ltmp113:
	.loc	3 439 5 prologue_end            @ rt-thread/components/utilities/ymodem/ymodem.c:439:5
	ldr	r1, [sp, #16]
	movs	r0, #4
	.loc	3 439 16 is_stmt 0              @ rt-thread/components/utilities/ymodem/ymodem.c:439:16
	strb	r0, [r1, #12]
.Ltmp114:
	.loc	3 442 9 is_stmt 1               @ rt-thread/components/utilities/ymodem/ymodem.c:442:9
	ldr	r0, [sp, #16]
	.loc	3 442 14 is_stmt 0              @ rt-thread/components/utilities/ymodem/ymodem.c:442:14
	ldr	r0, [r0, #8]
.Ltmp115:
	.loc	3 442 9                         @ rt-thread/components/utilities/ymodem/ymodem.c:442:9
	cbz	r0, .LBB7_2
	b	.LBB7_1
.LBB7_1:
.Ltmp116:
	.loc	3 443 9 is_stmt 1               @ rt-thread/components/utilities/ymodem/ymodem.c:443:9
	ldr	r0, [sp, #16]
	.loc	3 443 14 is_stmt 0              @ rt-thread/components/utilities/ymodem/ymodem.c:443:14
	ldr	r3, [r0, #8]
	.loc	3 443 31                        @ rt-thread/components/utilities/ymodem/ymodem.c:443:31
	ldr	r1, [r0, #16]
	.loc	3 443 35                        @ rt-thread/components/utilities/ymodem/ymodem.c:443:35
	adds	r1, #3
	movs	r2, #128
	.loc	3 443 9                         @ rt-thread/components/utilities/ymodem/ymodem.c:443:9
	blx	r3
	b	.LBB7_2
.Ltmp117:
.LBB7_2:
	.loc	3 445 18 is_stmt 1              @ rt-thread/components/utilities/ymodem/ymodem.c:445:18
	ldr	r0, [sp, #16]
	movs	r1, #21
	.loc	3 445 5 is_stmt 0               @ rt-thread/components/utilities/ymodem/ymodem.c:445:5
	bl	_rym_putchar
	.loc	3 446 27 is_stmt 1              @ rt-thread/components/utilities/ymodem/ymodem.c:446:27
	ldr	r0, [sp, #16]
	movw	r1, #3000
	.loc	3 446 12 is_stmt 0              @ rt-thread/components/utilities/ymodem/ymodem.c:446:12
	bl	_rym_read_code
	.loc	3 446 10                        @ rt-thread/components/utilities/ymodem/ymodem.c:446:10
	strb.w	r0, [sp, #15]
.Ltmp118:
	.loc	3 447 9 is_stmt 1               @ rt-thread/components/utilities/ymodem/ymodem.c:447:9
	ldrb.w	r0, [sp, #15]
.Ltmp119:
	.loc	3 447 9 is_stmt 0               @ rt-thread/components/utilities/ymodem/ymodem.c:447:9
	cmp	r0, #4
	beq	.LBB7_4
	b	.LBB7_3
.LBB7_3:
	.loc	3 0 9                           @ rt-thread/components/utilities/ymodem/ymodem.c:0:9
	mvn	r0, #112
.Ltmp120:
	.loc	3 448 9 is_stmt 1               @ rt-thread/components/utilities/ymodem/ymodem.c:448:9
	str	r0, [sp, #20]
	b	.LBB7_23
.Ltmp121:
.LBB7_4:
	.loc	3 450 18                        @ rt-thread/components/utilities/ymodem/ymodem.c:450:18
	ldr	r0, [sp, #16]
	movs	r1, #6
	.loc	3 450 5 is_stmt 0               @ rt-thread/components/utilities/ymodem/ymodem.c:450:5
	bl	_rym_putchar
	.loc	3 451 18 is_stmt 1              @ rt-thread/components/utilities/ymodem/ymodem.c:451:18
	ldr	r0, [sp, #16]
	movs	r1, #67
	.loc	3 451 5 is_stmt 0               @ rt-thread/components/utilities/ymodem/ymodem.c:451:5
	bl	_rym_putchar
	.loc	3 453 27 is_stmt 1              @ rt-thread/components/utilities/ymodem/ymodem.c:453:27
	ldr	r0, [sp, #16]
	movw	r1, #3000
	.loc	3 453 12 is_stmt 0              @ rt-thread/components/utilities/ymodem/ymodem.c:453:12
	bl	_rym_read_code
	.loc	3 453 10                        @ rt-thread/components/utilities/ymodem/ymodem.c:453:10
	strb.w	r0, [sp, #15]
.Ltmp122:
	.loc	3 454 9 is_stmt 1               @ rt-thread/components/utilities/ymodem/ymodem.c:454:9
	ldrb.w	r0, [sp, #15]
.Ltmp123:
	.loc	3 454 9 is_stmt 0               @ rt-thread/components/utilities/ymodem/ymodem.c:454:9
	cmp	r0, #1
	bne	.LBB7_6
	b	.LBB7_5
.LBB7_5:
	.loc	3 0 9                           @ rt-thread/components/utilities/ymodem/ymodem.c:0:9
	movs	r0, #133
.Ltmp124:
	.loc	3 456 17 is_stmt 1              @ rt-thread/components/utilities/ymodem/ymodem.c:456:17
	str	r0, [sp, #4]
	.loc	3 457 5                         @ rt-thread/components/utilities/ymodem/ymodem.c:457:5
	b	.LBB7_10
.Ltmp125:
.LBB7_6:
	.loc	3 458 14                        @ rt-thread/components/utilities/ymodem/ymodem.c:458:14
	ldrb.w	r0, [sp, #15]
.Ltmp126:
	.loc	3 458 14 is_stmt 0              @ rt-thread/components/utilities/ymodem/ymodem.c:458:14
	cmp	r0, #2
	bne	.LBB7_8
	b	.LBB7_7
.LBB7_7:
	.loc	3 0 14                          @ rt-thread/components/utilities/ymodem/ymodem.c:0:14
	movw	r0, #1029
.Ltmp127:
	.loc	3 460 17 is_stmt 1              @ rt-thread/components/utilities/ymodem/ymodem.c:460:17
	str	r0, [sp, #4]
	.loc	3 461 5                         @ rt-thread/components/utilities/ymodem/ymodem.c:461:5
	b	.LBB7_9
.Ltmp128:
.LBB7_8:
	.loc	3 0 5 is_stmt 0                 @ rt-thread/components/utilities/ymodem/ymodem.c:0:5
	mvn	r0, #112
	.loc	3 463 9 is_stmt 1               @ rt-thread/components/utilities/ymodem/ymodem.c:463:9
	str	r0, [sp, #20]
	b	.LBB7_23
.Ltmp129:
.LBB7_9:
	.loc	3 0 9 is_stmt 0                 @ rt-thread/components/utilities/ymodem/ymodem.c:0:9
	b	.LBB7_10
.LBB7_10:
	.loc	3 465 24 is_stmt 1              @ rt-thread/components/utilities/ymodem/ymodem.c:465:24
	ldr	r0, [sp, #16]
	movs	r1, #132
	.loc	3 465 9 is_stmt 0               @ rt-thread/components/utilities/ymodem/ymodem.c:465:9
	bl	_rym_read_data
	.loc	3 465 7                         @ rt-thread/components/utilities/ymodem/ymodem.c:465:7
	str	r0, [sp, #8]
.Ltmp130:
	.loc	3 466 9 is_stmt 1               @ rt-thread/components/utilities/ymodem/ymodem.c:466:9
	ldr	r0, [sp, #8]
.Ltmp131:
	.loc	3 466 9 is_stmt 0               @ rt-thread/components/utilities/ymodem/ymodem.c:466:9
	cmp	r0, #132
	beq	.LBB7_12
	b	.LBB7_11
.LBB7_11:
	.loc	3 0 9                           @ rt-thread/components/utilities/ymodem/ymodem.c:0:9
	mvn	r0, #115
.Ltmp132:
	.loc	3 467 9 is_stmt 1               @ rt-thread/components/utilities/ymodem/ymodem.c:467:9
	str	r0, [sp, #20]
	b	.LBB7_23
.Ltmp133:
.LBB7_12:
	.loc	3 471 9                         @ rt-thread/components/utilities/ymodem/ymodem.c:471:9
	ldr	r0, [sp, #16]
	.loc	3 471 14 is_stmt 0              @ rt-thread/components/utilities/ymodem/ymodem.c:471:14
	ldr	r0, [r0, #16]
	.loc	3 471 9                         @ rt-thread/components/utilities/ymodem/ymodem.c:471:9
	ldrb	r0, [r0, #1]
	.loc	3 471 26                        @ rt-thread/components/utilities/ymodem/ymodem.c:471:26
	cbnz	r0, .LBB7_14
	b	.LBB7_13
.LBB7_13:
	.loc	3 471 29                        @ rt-thread/components/utilities/ymodem/ymodem.c:471:29
	ldr	r0, [sp, #16]
	.loc	3 471 34                        @ rt-thread/components/utilities/ymodem/ymodem.c:471:34
	ldr	r0, [r0, #16]
	.loc	3 471 29                        @ rt-thread/components/utilities/ymodem/ymodem.c:471:29
	ldrb	r0, [r0, #2]
.Ltmp134:
	.loc	3 471 9                         @ rt-thread/components/utilities/ymodem/ymodem.c:471:9
	cmp	r0, #255
	beq	.LBB7_15
	b	.LBB7_14
.LBB7_14:
	.loc	3 0 9                           @ rt-thread/components/utilities/ymodem/ymodem.c:0:9
	mvn	r0, #113
.Ltmp135:
	.loc	3 472 9 is_stmt 1               @ rt-thread/components/utilities/ymodem/ymodem.c:472:9
	str	r0, [sp, #20]
	b	.LBB7_23
.Ltmp136:
.LBB7_15:
	.loc	3 474 32                        @ rt-thread/components/utilities/ymodem/ymodem.c:474:32
	ldr	r0, [sp, #16]
	.loc	3 474 37 is_stmt 0              @ rt-thread/components/utilities/ymodem/ymodem.c:474:37
	ldr	r0, [r0, #16]
	.loc	3 474 30                        @ rt-thread/components/utilities/ymodem/ymodem.c:474:30
	ldrb.w	r1, [r0, #131]
	.loc	3 474 72                        @ rt-thread/components/utilities/ymodem/ymodem.c:474:72
	ldrb.w	r0, [r0, #132]
	.loc	3 474 70                        @ rt-thread/components/utilities/ymodem/ymodem.c:474:70
	orr.w	r0, r0, r1, lsl #8
	.loc	3 474 14                        @ rt-thread/components/utilities/ymodem/ymodem.c:474:14
	strh.w	r0, [sp, #12]
.Ltmp137:
	.loc	3 475 9 is_stmt 1               @ rt-thread/components/utilities/ymodem/ymodem.c:475:9
	ldrh.w	r0, [sp, #12]
	.loc	3 475 27 is_stmt 0              @ rt-thread/components/utilities/ymodem/ymodem.c:475:27
	str	r0, [sp]                        @ 4-byte Spill
	ldr	r0, [sp, #16]
	.loc	3 475 32                        @ rt-thread/components/utilities/ymodem/ymodem.c:475:32
	ldr	r0, [r0, #16]
	.loc	3 475 36                        @ rt-thread/components/utilities/ymodem/ymodem.c:475:36
	adds	r0, #3
	movs	r1, #128
	.loc	3 475 21                        @ rt-thread/components/utilities/ymodem/ymodem.c:475:21
	bl	CRC16
	mov	r1, r0
.Ltmp138:
	.loc	3 475 9                         @ rt-thread/components/utilities/ymodem/ymodem.c:475:9
	ldr	r0, [sp]                        @ 4-byte Reload
	cmp	r0, r1
	beq	.LBB7_17
	b	.LBB7_16
.LBB7_16:
	.loc	3 0 9                           @ rt-thread/components/utilities/ymodem/ymodem.c:0:9
	mvn	r0, #114
.Ltmp139:
	.loc	3 476 9 is_stmt 1               @ rt-thread/components/utilities/ymodem/ymodem.c:476:9
	str	r0, [sp, #20]
	b	.LBB7_23
.Ltmp140:
.LBB7_17:
	.loc	3 479 9                         @ rt-thread/components/utilities/ymodem/ymodem.c:479:9
	ldr	r0, [sp, #16]
	.loc	3 479 14 is_stmt 0              @ rt-thread/components/utilities/ymodem/ymodem.c:479:14
	ldr	r0, [r0, #16]
	.loc	3 479 9                         @ rt-thread/components/utilities/ymodem/ymodem.c:479:9
	ldrb	r0, [r0, #3]
.Ltmp141:
	.loc	3 479 9                         @ rt-thread/components/utilities/ymodem/ymodem.c:479:9
	cbz	r0, .LBB7_22
	b	.LBB7_18
.LBB7_18:
.Ltmp142:
	.loc	3 481 13 is_stmt 1              @ rt-thread/components/utilities/ymodem/ymodem.c:481:13
	ldr	r0, [sp, #16]
	.loc	3 481 18 is_stmt 0              @ rt-thread/components/utilities/ymodem/ymodem.c:481:18
	ldr	r0, [r0, #4]
	.loc	3 481 27                        @ rt-thread/components/utilities/ymodem/ymodem.c:481:27
	cbz	r0, .LBB7_21
	b	.LBB7_19
.LBB7_19:
	.loc	3 481 30                        @ rt-thread/components/utilities/ymodem/ymodem.c:481:30
	ldr	r0, [sp, #16]
	.loc	3 481 35                        @ rt-thread/components/utilities/ymodem/ymodem.c:481:35
	ldr	r3, [r0, #4]
	.loc	3 481 54                        @ rt-thread/components/utilities/ymodem/ymodem.c:481:54
	ldr	r1, [r0, #16]
	.loc	3 481 58                        @ rt-thread/components/utilities/ymodem/ymodem.c:481:58
	adds	r1, #3
	.loc	3 481 63                        @ rt-thread/components/utilities/ymodem/ymodem.c:481:63
	ldr	r2, [sp, #4]
	.loc	3 481 71                        @ rt-thread/components/utilities/ymodem/ymodem.c:481:71
	subs	r2, #5
	.loc	3 481 30                        @ rt-thread/components/utilities/ymodem/ymodem.c:481:30
	blx	r3
.Ltmp143:
	.loc	3 481 13                        @ rt-thread/components/utilities/ymodem/ymodem.c:481:13
	cmp	r0, #6
	beq	.LBB7_21
	b	.LBB7_20
.LBB7_20:
	.loc	3 0 13                          @ rt-thread/components/utilities/ymodem/ymodem.c:0:13
	mvn	r0, #116
.Ltmp144:
	.loc	3 482 13 is_stmt 1              @ rt-thread/components/utilities/ymodem/ymodem.c:482:13
	str	r0, [sp, #20]
	b	.LBB7_23
.Ltmp145:
.LBB7_21:
	.loc	3 0 13 is_stmt 0                @ rt-thread/components/utilities/ymodem/ymodem.c:0:13
	movs	r0, #0
	.loc	3 483 9 is_stmt 1               @ rt-thread/components/utilities/ymodem/ymodem.c:483:9
	str	r0, [sp, #20]
	b	.LBB7_23
.Ltmp146:
.LBB7_22:
	.loc	3 487 5                         @ rt-thread/components/utilities/ymodem/ymodem.c:487:5
	ldr	r1, [sp, #16]
	movs	r0, #5
	.loc	3 487 16 is_stmt 0              @ rt-thread/components/utilities/ymodem/ymodem.c:487:16
	strb	r0, [r1, #12]
	.loc	3 490 18 is_stmt 1              @ rt-thread/components/utilities/ymodem/ymodem.c:490:18
	ldr	r0, [sp, #16]
	movs	r1, #6
	.loc	3 490 5 is_stmt 0               @ rt-thread/components/utilities/ymodem/ymodem.c:490:5
	bl	_rym_putchar
	movs	r0, #0
	.loc	3 492 5 is_stmt 1               @ rt-thread/components/utilities/ymodem/ymodem.c:492:5
	str	r0, [sp, #20]
	b	.LBB7_23
.LBB7_23:
	.loc	3 493 1                         @ rt-thread/components/utilities/ymodem/ymodem.c:493:1
	ldr	r0, [sp, #20]
	add	sp, #24
	pop	{r7, pc}
.Ltmp147:
.Lfunc_end7:
	.size	_rym_do_fin, .Lfunc_end7-_rym_do_fin
	.cfi_endproc
	.cantunwind
	.fnend
                                        @ -- End function
	.section	.text._rym_putchar,"ax",%progbits
	.p2align	3                               @ -- Begin function _rym_putchar
	.type	_rym_putchar,%function
	.code	16                              @ @_rym_putchar
	.thumb_func
_rym_putchar:
.Lfunc_begin8:
	.loc	3 171 0                         @ rt-thread/components/utilities/ymodem/ymodem.c:171:0
	.fnstart
	.cfi_startproc
@ %bb.0:
	.save	{r7, lr}
	push	{r7, lr}
	.cfi_def_cfa_offset 8
	.cfi_offset lr, -4
	.cfi_offset r7, -8
	.pad	#16
	sub	sp, #16
	.cfi_def_cfa_offset 24
                                        @ kill: def $r2 killed $r1
	str	r0, [sp, #12]
	strb.w	r1, [sp, #11]
.Ltmp148:
	.loc	3 172 21 prologue_end           @ rt-thread/components/utilities/ymodem/ymodem.c:172:21
	ldr	r0, [sp, #12]
	.loc	3 172 26 is_stmt 0              @ rt-thread/components/utilities/ymodem/ymodem.c:172:26
	ldr	r0, [r0, #52]
	movs	r1, #0
	add.w	r2, sp, #11
	movs	r3, #1
	.loc	3 172 5                         @ rt-thread/components/utilities/ymodem/ymodem.c:172:5
	str	r3, [sp, #4]                    @ 4-byte Spill
	bl	rt_device_write
                                        @ kill: def $r1 killed $r0
	.loc	3 173 5 is_stmt 1               @ rt-thread/components/utilities/ymodem/ymodem.c:173:5
	ldr	r0, [sp, #4]                    @ 4-byte Reload
	add	sp, #16
	pop	{r7, pc}
.Ltmp149:
.Lfunc_end8:
	.size	_rym_putchar, .Lfunc_end8-_rym_putchar
	.cfi_endproc
	.cantunwind
	.fnend
                                        @ -- End function
	.section	.text._rym_read_code,"ax",%progbits
	.p2align	3                               @ -- Begin function _rym_read_code
	.type	_rym_read_code,%function
	.code	16                              @ @_rym_read_code
	.thumb_func
_rym_read_code:
.Lfunc_begin9:
	.loc	3 101 0                         @ rt-thread/components/utilities/ymodem/ymodem.c:101:0
	.fnstart
	.cfi_startproc
@ %bb.0:
	.save	{r7, lr}
	push	{r7, lr}
	.cfi_def_cfa_offset 8
	.cfi_offset lr, -4
	.cfi_offset r7, -8
	.pad	#16
	sub	sp, #16
	.cfi_def_cfa_offset 24
	str	r0, [sp, #8]
	str	r1, [sp, #4]
.Ltmp150:
	.loc	3 103 24 prologue_end           @ rt-thread/components/utilities/ymodem/ymodem.c:103:24
	ldr	r0, [sp, #8]
	.loc	3 103 42 is_stmt 0              @ rt-thread/components/utilities/ymodem/ymodem.c:103:42
	ldr	r2, [r0, #16]
	.loc	3 103 29                        @ rt-thread/components/utilities/ymodem/ymodem.c:103:29
	ldr	r0, [r0, #52]
	movs	r1, #0
	movs	r3, #1
	.loc	3 103 9                         @ rt-thread/components/utilities/ymodem/ymodem.c:103:9
	bl	rt_device_read
.Ltmp151:
	.loc	3 103 9                         @ rt-thread/components/utilities/ymodem/ymodem.c:103:9
	cmp	r0, #1
	bne	.LBB9_2
	b	.LBB9_1
.LBB9_1:
.Ltmp152:
	.loc	3 104 33 is_stmt 1              @ rt-thread/components/utilities/ymodem/ymodem.c:104:33
	ldr	r0, [sp, #8]
	.loc	3 104 38 is_stmt 0              @ rt-thread/components/utilities/ymodem/ymodem.c:104:38
	ldr	r0, [r0, #16]
	.loc	3 104 32                        @ rt-thread/components/utilities/ymodem/ymodem.c:104:32
	ldrb	r0, [r0]
	.loc	3 104 9                         @ rt-thread/components/utilities/ymodem/ymodem.c:104:9
	strb.w	r0, [sp, #15]
	b	.LBB9_9
.Ltmp153:
.LBB9_2:
	.loc	3 107 5 is_stmt 1               @ rt-thread/components/utilities/ymodem/ymodem.c:107:5
	b	.LBB9_3
.LBB9_3:                                @ =>This Inner Loop Header: Depth=1
.Ltmp154:
	.loc	3 112 26                        @ rt-thread/components/utilities/ymodem/ymodem.c:112:26
	ldr	r0, [sp, #8]
	.loc	3 112 31 is_stmt 0              @ rt-thread/components/utilities/ymodem/ymodem.c:112:31
	adds	r0, #20
	.loc	3 112 36                        @ rt-thread/components/utilities/ymodem/ymodem.c:112:36
	ldr	r1, [sp, #4]
	.loc	3 112 13                        @ rt-thread/components/utilities/ymodem/ymodem.c:112:13
	bl	rt_sem_take
.Ltmp155:
	.loc	3 112 13                        @ rt-thread/components/utilities/ymodem/ymodem.c:112:13
	cbz	r0, .LBB9_5
	b	.LBB9_4
.LBB9_4:
	.loc	3 0 13                          @ rt-thread/components/utilities/ymodem/ymodem.c:0:13
	movs	r0, #0
.Ltmp156:
	.loc	3 113 13 is_stmt 1              @ rt-thread/components/utilities/ymodem/ymodem.c:113:13
	strb.w	r0, [sp, #15]
	b	.LBB9_9
.Ltmp157:
.LBB9_5:                                @   in Loop: Header=BB9_3 Depth=1
	.loc	3 116 30                        @ rt-thread/components/utilities/ymodem/ymodem.c:116:30
	ldr	r0, [sp, #8]
	.loc	3 116 48 is_stmt 0              @ rt-thread/components/utilities/ymodem/ymodem.c:116:48
	ldr	r2, [r0, #16]
	.loc	3 116 35                        @ rt-thread/components/utilities/ymodem/ymodem.c:116:35
	ldr	r0, [r0, #52]
	movs	r1, #0
	movs	r3, #1
	.loc	3 116 15                        @ rt-thread/components/utilities/ymodem/ymodem.c:116:15
	bl	rt_device_read
	.loc	3 116 13                        @ rt-thread/components/utilities/ymodem/ymodem.c:116:13
	str	r0, [sp]
.Ltmp158:
	.loc	3 117 13 is_stmt 1              @ rt-thread/components/utilities/ymodem/ymodem.c:117:13
	ldr	r0, [sp]
.Ltmp159:
	.loc	3 117 13 is_stmt 0              @ rt-thread/components/utilities/ymodem/ymodem.c:117:13
	cmp	r0, #1
	bne	.LBB9_7
	b	.LBB9_6
.LBB9_6:
.Ltmp160:
	.loc	3 118 37 is_stmt 1              @ rt-thread/components/utilities/ymodem/ymodem.c:118:37
	ldr	r0, [sp, #8]
	.loc	3 118 42 is_stmt 0              @ rt-thread/components/utilities/ymodem/ymodem.c:118:42
	ldr	r0, [r0, #16]
	.loc	3 118 36                        @ rt-thread/components/utilities/ymodem/ymodem.c:118:36
	ldrb	r0, [r0]
	.loc	3 118 13                        @ rt-thread/components/utilities/ymodem/ymodem.c:118:13
	strb.w	r0, [sp, #15]
	b	.LBB9_9
.Ltmp161:
.LBB9_7:                                @   in Loop: Header=BB9_3 Depth=1
	.loc	3 119 5 is_stmt 1               @ rt-thread/components/utilities/ymodem/ymodem.c:119:5
	b	.LBB9_8
.LBB9_8:                                @   in Loop: Header=BB9_3 Depth=1
	.loc	3 0 5 is_stmt 0                 @ rt-thread/components/utilities/ymodem/ymodem.c:0:5
	movs	r0, #1
	.loc	3 119 5                         @ rt-thread/components/utilities/ymodem/ymodem.c:119:5
	cmp	r0, #0
	bne	.LBB9_3
	b	.LBB9_9
.Ltmp162:
.LBB9_9:
	.loc	3 121 1 is_stmt 1               @ rt-thread/components/utilities/ymodem/ymodem.c:121:1
	ldrb.w	r0, [sp, #15]
	add	sp, #16
	pop	{r7, pc}
.Ltmp163:
.Lfunc_end9:
	.size	_rym_read_code, .Lfunc_end9-_rym_read_code
	.cfi_endproc
	.cantunwind
	.fnend
                                        @ -- End function
	.section	.text._rym_read_data,"ax",%progbits
	.p2align	3                               @ -- Begin function _rym_read_data
	.type	_rym_read_data,%function
	.code	16                              @ @_rym_read_data
	.thumb_func
_rym_read_data:
.Lfunc_begin10:
	.loc	3 127 0                         @ rt-thread/components/utilities/ymodem/ymodem.c:127:0
	.fnstart
	.cfi_startproc
@ %bb.0:
	.save	{r7, lr}
	push	{r7, lr}
	.cfi_def_cfa_offset 8
	.cfi_offset lr, -4
	.cfi_offset r7, -8
	.pad	#24
	sub	sp, #24
	.cfi_def_cfa_offset 32
	str	r0, [sp, #16]
	str	r1, [sp, #12]
.Ltmp164:
	.loc	3 129 23 prologue_end           @ rt-thread/components/utilities/ymodem/ymodem.c:129:23
	ldr	r0, [sp, #16]
	.loc	3 129 28 is_stmt 0              @ rt-thread/components/utilities/ymodem/ymodem.c:129:28
	ldr	r0, [r0, #16]
	.loc	3 129 32                        @ rt-thread/components/utilities/ymodem/ymodem.c:129:32
	adds	r0, #1
	.loc	3 129 17                        @ rt-thread/components/utilities/ymodem/ymodem.c:129:17
	str	r0, [sp, #8]
	movs	r0, #0
	.loc	3 130 15 is_stmt 1              @ rt-thread/components/utilities/ymodem/ymodem.c:130:15
	str	r0, [sp, #4]
	.loc	3 132 5                         @ rt-thread/components/utilities/ymodem/ymodem.c:132:5
	b	.LBB10_1
.LBB10_1:                               @ =>This Inner Loop Header: Depth=1
.Ltmp165:
	.loc	3 134 35                        @ rt-thread/components/utilities/ymodem/ymodem.c:134:35
	ldr	r0, [sp, #16]
	.loc	3 134 40 is_stmt 0              @ rt-thread/components/utilities/ymodem/ymodem.c:134:40
	ldr	r0, [r0, #52]
	.loc	3 135 38 is_stmt 1              @ rt-thread/components/utilities/ymodem/ymodem.c:135:38
	ldr	r1, [sp, #8]
	.loc	3 135 44 is_stmt 0              @ rt-thread/components/utilities/ymodem/ymodem.c:135:44
	ldr	r3, [sp, #4]
	.loc	3 135 42                        @ rt-thread/components/utilities/ymodem/ymodem.c:135:42
	adds	r2, r1, r3
	.loc	3 135 53                        @ rt-thread/components/utilities/ymodem/ymodem.c:135:53
	ldr	r1, [sp, #12]
	.loc	3 135 57                        @ rt-thread/components/utilities/ymodem/ymodem.c:135:57
	subs	r3, r1, r3
	movs	r1, #0
	.loc	3 134 20 is_stmt 1              @ rt-thread/components/utilities/ymodem/ymodem.c:134:20
	bl	rt_device_read
	mov	r1, r0
	.loc	3 134 17 is_stmt 0              @ rt-thread/components/utilities/ymodem/ymodem.c:134:17
	ldr	r0, [sp, #4]
	add	r0, r1
	str	r0, [sp, #4]
.Ltmp166:
	.loc	3 136 13 is_stmt 1              @ rt-thread/components/utilities/ymodem/ymodem.c:136:13
	ldr	r0, [sp, #4]
	.loc	3 136 24 is_stmt 0              @ rt-thread/components/utilities/ymodem/ymodem.c:136:24
	ldr	r1, [sp, #12]
.Ltmp167:
	.loc	3 136 13                        @ rt-thread/components/utilities/ymodem/ymodem.c:136:13
	cmp	r0, r1
	blo	.LBB10_3
	b	.LBB10_2
.LBB10_2:
.Ltmp168:
	.loc	3 137 20 is_stmt 1              @ rt-thread/components/utilities/ymodem/ymodem.c:137:20
	ldr	r0, [sp, #4]
	.loc	3 137 13 is_stmt 0              @ rt-thread/components/utilities/ymodem/ymodem.c:137:13
	str	r0, [sp, #20]
	b	.LBB10_6
.Ltmp169:
.LBB10_3:                               @   in Loop: Header=BB10_1 Depth=1
	.loc	3 138 5 is_stmt 1               @ rt-thread/components/utilities/ymodem/ymodem.c:138:5
	b	.LBB10_4
.Ltmp170:
.LBB10_4:                               @   in Loop: Header=BB10_1 Depth=1
	.loc	3 139 25                        @ rt-thread/components/utilities/ymodem/ymodem.c:139:25
	ldr	r0, [sp, #16]
	.loc	3 139 30 is_stmt 0              @ rt-thread/components/utilities/ymodem/ymodem.c:139:30
	adds	r0, #20
	movw	r1, #3000
	.loc	3 139 12                        @ rt-thread/components/utilities/ymodem/ymodem.c:139:12
	bl	rt_sem_take
.Ltmp171:
	.loc	3 138 5 is_stmt 1               @ rt-thread/components/utilities/ymodem/ymodem.c:138:5
	cmp	r0, #0
	beq	.LBB10_1
	b	.LBB10_5
.Ltmp172:
.LBB10_5:
	.loc	3 141 12                        @ rt-thread/components/utilities/ymodem/ymodem.c:141:12
	ldr	r0, [sp, #4]
	.loc	3 141 5 is_stmt 0               @ rt-thread/components/utilities/ymodem/ymodem.c:141:5
	str	r0, [sp, #20]
	b	.LBB10_6
.LBB10_6:
	.loc	3 142 1 is_stmt 1               @ rt-thread/components/utilities/ymodem/ymodem.c:142:1
	ldr	r0, [sp, #20]
	add	sp, #24
	pop	{r7, pc}
.Ltmp173:
.Lfunc_end10:
	.size	_rym_read_data, .Lfunc_end10-_rym_read_data
	.cfi_endproc
	.cantunwind
	.fnend
                                        @ -- End function
	.section	.text.CRC16,"ax",%progbits
	.p2align	3                               @ -- Begin function CRC16
	.type	CRC16,%function
	.code	16                              @ @CRC16
	.thumb_func
CRC16:
.Lfunc_begin11:
	.loc	3 62 0                          @ rt-thread/components/utilities/ymodem/ymodem.c:62:0
	.fnstart
	.cfi_startproc
@ %bb.0:
	.pad	#12
	sub	sp, #12
	.cfi_def_cfa_offset 12
	str	r0, [sp, #8]
	str	r1, [sp, #4]
	movs	r0, #0
.Ltmp174:
	.loc	3 66 9 prologue_end             @ rt-thread/components/utilities/ymodem/ymodem.c:66:9
	strh.w	r0, [sp, #2]
	.loc	3 67 5                          @ rt-thread/components/utilities/ymodem/ymodem.c:67:5
	b	.LBB11_1
.LBB11_1:                               @ =>This Loop Header: Depth=1
                                        @     Child Loop BB11_3 Depth 2
	.loc	3 67 12 is_stmt 0               @ rt-thread/components/utilities/ymodem/ymodem.c:67:12
	ldr	r0, [sp, #4]
	subs	r0, #1
	str	r0, [sp, #4]
	.loc	3 67 5                          @ rt-thread/components/utilities/ymodem/ymodem.c:67:5
	cmp	r0, #0
	bmi	.LBB11_9
	b	.LBB11_2
.LBB11_2:                               @   in Loop: Header=BB11_1 Depth=1
.Ltmp175:
	.loc	3 69 15 is_stmt 1               @ rt-thread/components/utilities/ymodem/ymodem.c:69:15
	ldrh.w	r0, [sp, #2]
	.loc	3 69 30 is_stmt 0               @ rt-thread/components/utilities/ymodem/ymodem.c:69:30
	ldr	r1, [sp, #8]
	adds	r2, r1, #1
	str	r2, [sp, #8]
	.loc	3 69 21                         @ rt-thread/components/utilities/ymodem/ymodem.c:69:21
	ldrb	r1, [r1]
	.loc	3 69 19                         @ rt-thread/components/utilities/ymodem/ymodem.c:69:19
	eor.w	r0, r0, r1, lsl #8
	.loc	3 69 13                         @ rt-thread/components/utilities/ymodem/ymodem.c:69:13
	strh.w	r0, [sp, #2]
	movs	r0, #8
	.loc	3 70 11 is_stmt 1               @ rt-thread/components/utilities/ymodem/ymodem.c:70:11
	strb.w	r0, [sp, #1]
	.loc	3 71 9                          @ rt-thread/components/utilities/ymodem/ymodem.c:71:9
	b	.LBB11_3
.LBB11_3:                               @   Parent Loop BB11_1 Depth=1
                                        @ =>  This Inner Loop Header: Depth=2
.Ltmp176:
	.loc	3 73 17                         @ rt-thread/components/utilities/ymodem/ymodem.c:73:17
	ldrh.w	r0, [sp, #2]
.Ltmp177:
	.loc	3 73 17 is_stmt 0               @ rt-thread/components/utilities/ymodem/ymodem.c:73:17
	lsls	r0, r0, #16
	cmp	r0, #0
	bpl	.LBB11_5
	b	.LBB11_4
.LBB11_4:                               @   in Loop: Header=BB11_3 Depth=2
.Ltmp178:
	.loc	3 74 23 is_stmt 1               @ rt-thread/components/utilities/ymodem/ymodem.c:74:23
	ldrh.w	r1, [sp, #2]
	movw	r0, #4129
	.loc	3 74 32 is_stmt 0               @ rt-thread/components/utilities/ymodem/ymodem.c:74:32
	eor.w	r0, r0, r1, lsl #1
	.loc	3 74 21                         @ rt-thread/components/utilities/ymodem/ymodem.c:74:21
	strh.w	r0, [sp, #2]
	.loc	3 74 17                         @ rt-thread/components/utilities/ymodem/ymodem.c:74:17
	b	.LBB11_6
.LBB11_5:                               @   in Loop: Header=BB11_3 Depth=2
	.loc	3 76 23 is_stmt 1               @ rt-thread/components/utilities/ymodem/ymodem.c:76:23
	ldrh.w	r0, [sp, #2]
	.loc	3 76 27 is_stmt 0               @ rt-thread/components/utilities/ymodem/ymodem.c:76:27
	lsls	r0, r0, #1
	.loc	3 76 21                         @ rt-thread/components/utilities/ymodem/ymodem.c:76:21
	strh.w	r0, [sp, #2]
	b	.LBB11_6
.Ltmp179:
.LBB11_6:                               @   in Loop: Header=BB11_3 Depth=2
	.loc	3 77 9 is_stmt 1                @ rt-thread/components/utilities/ymodem/ymodem.c:77:9
	b	.LBB11_7
.Ltmp180:
.LBB11_7:                               @   in Loop: Header=BB11_3 Depth=2
	.loc	3 78 16                         @ rt-thread/components/utilities/ymodem/ymodem.c:78:16
	ldrb.w	r0, [sp, #1]
	subs	r0, #1
	strb.w	r0, [sp, #1]
.Ltmp181:
	.loc	3 77 9                          @ rt-thread/components/utilities/ymodem/ymodem.c:77:9
	lsls	r0, r0, #24
	cmp	r0, #0
	bne	.LBB11_3
	b	.LBB11_8
.Ltmp182:
.LBB11_8:                               @   in Loop: Header=BB11_1 Depth=1
	.loc	3 67 5                          @ rt-thread/components/utilities/ymodem/ymodem.c:67:5
	b	.LBB11_1
.LBB11_9:
	.loc	3 81 13                         @ rt-thread/components/utilities/ymodem/ymodem.c:81:13
	ldrh.w	r0, [sp, #2]
	.loc	3 81 5 is_stmt 0                @ rt-thread/components/utilities/ymodem/ymodem.c:81:5
	add	sp, #12
	bx	lr
.Ltmp183:
.Lfunc_end11:
	.size	CRC16, .Lfunc_end11-CRC16
	.cfi_endproc
	.cantunwind
	.fnend
                                        @ -- End function
	.section	.text._rym_trans_data,"ax",%progbits
	.p2align	3                               @ -- Begin function _rym_trans_data
	.type	_rym_trans_data,%function
	.code	16                              @ @_rym_trans_data
	.thumb_func
_rym_trans_data:
.Lfunc_begin12:
	.loc	3 308 0 is_stmt 1               @ rt-thread/components/utilities/ymodem/ymodem.c:308:0
	.fnstart
	.cfi_startproc
@ %bb.0:
	.save	{r7, lr}
	push	{r7, lr}
	.cfi_def_cfa_offset 8
	.cfi_offset lr, -4
	.cfi_offset r7, -8
	.pad	#32
	sub	sp, #32
	.cfi_def_cfa_offset 40
	str	r0, [sp, #24]
	str	r1, [sp, #20]
	str	r2, [sp, #16]
.Ltmp184:
	.loc	3 309 31 prologue_end           @ rt-thread/components/utilities/ymodem/ymodem.c:309:31
	ldr	r0, [sp, #20]
	.loc	3 309 39 is_stmt 0              @ rt-thread/components/utilities/ymodem/ymodem.c:309:39
	adds	r0, #4
	.loc	3 309 21                        @ rt-thread/components/utilities/ymodem/ymodem.c:309:21
	str	r0, [sp, #12]
	.loc	3 313 34 is_stmt 1              @ rt-thread/components/utilities/ymodem/ymodem.c:313:34
	ldr	r0, [sp, #24]
	.loc	3 313 39 is_stmt 0              @ rt-thread/components/utilities/ymodem/ymodem.c:313:39
	ldr	r1, [sp, #12]
	.loc	3 313 19                        @ rt-thread/components/utilities/ymodem/ymodem.c:313:19
	bl	_rym_read_data
	.loc	3 313 15                        @ rt-thread/components/utilities/ymodem/ymodem.c:313:15
	str	r0, [sp, #4]
.Ltmp185:
	.loc	3 314 9 is_stmt 1               @ rt-thread/components/utilities/ymodem/ymodem.c:314:9
	ldr	r0, [sp, #4]
	.loc	3 314 14 is_stmt 0              @ rt-thread/components/utilities/ymodem/ymodem.c:314:14
	ldr	r1, [sp, #12]
.Ltmp186:
	.loc	3 314 9                         @ rt-thread/components/utilities/ymodem/ymodem.c:314:9
	cmp	r0, r1
	beq	.LBB12_2
	b	.LBB12_1
.LBB12_1:
	.loc	3 0 9                           @ rt-thread/components/utilities/ymodem/ymodem.c:0:9
	mvn	r0, #115
.Ltmp187:
	.loc	3 315 9 is_stmt 1               @ rt-thread/components/utilities/ymodem/ymodem.c:315:9
	str	r0, [sp, #28]
	b	.LBB12_13
.Ltmp188:
.LBB12_2:
	.loc	3 317 10                        @ rt-thread/components/utilities/ymodem/ymodem.c:317:10
	ldr	r0, [sp, #24]
	.loc	3 317 15 is_stmt 0              @ rt-thread/components/utilities/ymodem/ymodem.c:317:15
	ldr	r1, [r0, #16]
	.loc	3 317 10                        @ rt-thread/components/utilities/ymodem/ymodem.c:317:10
	ldrb	r0, [r1, #1]
	.loc	3 317 24                        @ rt-thread/components/utilities/ymodem/ymodem.c:317:24
	ldrb	r1, [r1, #2]
	.loc	3 317 22                        @ rt-thread/components/utilities/ymodem/ymodem.c:317:22
	add	r0, r1
.Ltmp189:
	.loc	3 317 9                         @ rt-thread/components/utilities/ymodem/ymodem.c:317:9
	cmp	r0, #255
	beq	.LBB12_4
	b	.LBB12_3
.LBB12_3:
	.loc	3 0 9                           @ rt-thread/components/utilities/ymodem/ymodem.c:0:9
	mvn	r0, #113
.Ltmp190:
	.loc	3 319 9 is_stmt 1               @ rt-thread/components/utilities/ymodem/ymodem.c:319:9
	str	r0, [sp, #28]
	b	.LBB12_13
.Ltmp191:
.LBB12_4:
	.loc	3 326 9                         @ rt-thread/components/utilities/ymodem/ymodem.c:326:9
	ldr	r0, [sp, #24]
	.loc	3 326 14 is_stmt 0              @ rt-thread/components/utilities/ymodem/ymodem.c:326:14
	ldrb	r0, [r0, #12]
	.loc	3 326 45                        @ rt-thread/components/utilities/ymodem/ymodem.c:326:45
	cmp	r0, #2
	bne	.LBB12_7
	b	.LBB12_5
.LBB12_5:
	.loc	3 326 48                        @ rt-thread/components/utilities/ymodem/ymodem.c:326:48
	ldr	r0, [sp, #24]
	.loc	3 326 53                        @ rt-thread/components/utilities/ymodem/ymodem.c:326:53
	ldr	r0, [r0, #16]
	.loc	3 326 48                        @ rt-thread/components/utilities/ymodem/ymodem.c:326:48
	ldrb	r0, [r0, #1]
.Ltmp192:
	.loc	3 326 9                         @ rt-thread/components/utilities/ymodem/ymodem.c:326:9
	cbnz	r0, .LBB12_7
	b	.LBB12_6
.LBB12_6:
.Ltmp193:
	.loc	3 328 10 is_stmt 1              @ rt-thread/components/utilities/ymodem/ymodem.c:328:10
	ldr	r1, [sp, #16]
	movs	r0, #0
	.loc	3 328 15 is_stmt 0              @ rt-thread/components/utilities/ymodem/ymodem.c:328:15
	strb	r0, [r1]
	.loc	3 329 9 is_stmt 1               @ rt-thread/components/utilities/ymodem/ymodem.c:329:9
	str	r0, [sp, #28]
	b	.LBB12_13
.Ltmp194:
.LBB12_7:
	.loc	3 332 5                         @ rt-thread/components/utilities/ymodem/ymodem.c:332:5
	ldr	r1, [sp, #24]
	movs	r0, #3
	.loc	3 332 16 is_stmt 0              @ rt-thread/components/utilities/ymodem/ymodem.c:332:16
	strb	r0, [r1, #12]
	.loc	3 335 32 is_stmt 1              @ rt-thread/components/utilities/ymodem/ymodem.c:335:32
	ldr	r0, [sp, #24]
	.loc	3 335 37 is_stmt 0              @ rt-thread/components/utilities/ymodem/ymodem.c:335:37
	ldr	r0, [r0, #16]
	.loc	3 335 43                        @ rt-thread/components/utilities/ymodem/ymodem.c:335:43
	ldr	r2, [sp, #12]
	.loc	3 335 41                        @ rt-thread/components/utilities/ymodem/ymodem.c:335:41
	adds	r1, r0, r2
	.loc	3 335 30                        @ rt-thread/components/utilities/ymodem/ymodem.c:335:30
	ldrb	r1, [r1, #-1]
	.loc	3 335 60                        @ rt-thread/components/utilities/ymodem/ymodem.c:335:60
	ldrb	r0, [r0, r2]
	.loc	3 335 58                        @ rt-thread/components/utilities/ymodem/ymodem.c:335:58
	orr.w	r0, r0, r1, lsl #8
	.loc	3 335 14                        @ rt-thread/components/utilities/ymodem/ymodem.c:335:14
	strh.w	r0, [sp, #10]
.Ltmp195:
	.loc	3 336 9 is_stmt 1               @ rt-thread/components/utilities/ymodem/ymodem.c:336:9
	ldrh.w	r0, [sp, #10]
	.loc	3 336 27 is_stmt 0              @ rt-thread/components/utilities/ymodem/ymodem.c:336:27
	str	r0, [sp]                        @ 4-byte Spill
	ldr	r0, [sp, #24]
	.loc	3 336 32                        @ rt-thread/components/utilities/ymodem/ymodem.c:336:32
	ldr	r0, [r0, #16]
	.loc	3 336 36                        @ rt-thread/components/utilities/ymodem/ymodem.c:336:36
	adds	r0, #3
	.loc	3 336 41                        @ rt-thread/components/utilities/ymodem/ymodem.c:336:41
	ldr	r1, [sp, #20]
	.loc	3 336 21                        @ rt-thread/components/utilities/ymodem/ymodem.c:336:21
	bl	CRC16
	mov	r1, r0
.Ltmp196:
	.loc	3 336 9                         @ rt-thread/components/utilities/ymodem/ymodem.c:336:9
	ldr	r0, [sp]                        @ 4-byte Reload
	cmp	r0, r1
	beq	.LBB12_9
	b	.LBB12_8
.LBB12_8:
	.loc	3 0 9                           @ rt-thread/components/utilities/ymodem/ymodem.c:0:9
	mvn	r0, #114
.Ltmp197:
	.loc	3 337 9 is_stmt 1               @ rt-thread/components/utilities/ymodem/ymodem.c:337:9
	str	r0, [sp, #28]
	b	.LBB12_13
.Ltmp198:
.LBB12_9:
	.loc	3 340 9                         @ rt-thread/components/utilities/ymodem/ymodem.c:340:9
	ldr	r0, [sp, #24]
	.loc	3 340 14 is_stmt 0              @ rt-thread/components/utilities/ymodem/ymodem.c:340:14
	ldr	r0, [r0]
.Ltmp199:
	.loc	3 340 9                         @ rt-thread/components/utilities/ymodem/ymodem.c:340:9
	cbz	r0, .LBB12_11
	b	.LBB12_10
.LBB12_10:
.Ltmp200:
	.loc	3 341 17 is_stmt 1              @ rt-thread/components/utilities/ymodem/ymodem.c:341:17
	ldr	r0, [sp, #24]
	.loc	3 341 22 is_stmt 0              @ rt-thread/components/utilities/ymodem/ymodem.c:341:22
	ldr	r3, [r0]
	.loc	3 341 40                        @ rt-thread/components/utilities/ymodem/ymodem.c:341:40
	ldr	r1, [r0, #16]
	.loc	3 341 44                        @ rt-thread/components/utilities/ymodem/ymodem.c:341:44
	adds	r1, #3
	.loc	3 341 49                        @ rt-thread/components/utilities/ymodem/ymodem.c:341:49
	ldr	r2, [sp, #20]
	.loc	3 341 17                        @ rt-thread/components/utilities/ymodem/ymodem.c:341:17
	blx	r3
	.loc	3 341 10                        @ rt-thread/components/utilities/ymodem/ymodem.c:341:10
	ldr	r1, [sp, #16]
	.loc	3 341 15                        @ rt-thread/components/utilities/ymodem/ymodem.c:341:15
	strb	r0, [r1]
	.loc	3 341 9                         @ rt-thread/components/utilities/ymodem/ymodem.c:341:9
	b	.LBB12_12
.LBB12_11:
	.loc	3 343 10 is_stmt 1              @ rt-thread/components/utilities/ymodem/ymodem.c:343:10
	ldr	r1, [sp, #16]
	movs	r0, #6
	.loc	3 343 15 is_stmt 0              @ rt-thread/components/utilities/ymodem/ymodem.c:343:15
	strb	r0, [r1]
	b	.LBB12_12
.Ltmp201:
.LBB12_12:
	.loc	3 0 15                          @ rt-thread/components/utilities/ymodem/ymodem.c:0:15
	movs	r0, #0
	.loc	3 344 5 is_stmt 1               @ rt-thread/components/utilities/ymodem/ymodem.c:344:5
	str	r0, [sp, #28]
	b	.LBB12_13
.LBB12_13:
	.loc	3 345 1                         @ rt-thread/components/utilities/ymodem/ymodem.c:345:1
	ldr	r0, [sp, #28]
	add	sp, #32
	pop	{r7, pc}
.Ltmp202:
.Lfunc_end12:
	.size	_rym_trans_data, .Lfunc_end12-_rym_trans_data
	.cfi_endproc
	.cantunwind
	.fnend
                                        @ -- End function
	.section	.text._rym_do_send_handshake,"ax",%progbits
	.p2align	3                               @ -- Begin function _rym_do_send_handshake
	.type	_rym_do_send_handshake,%function
	.code	16                              @ @_rym_do_send_handshake
	.thumb_func
_rym_do_send_handshake:
.Lfunc_begin13:
	.loc	3 252 0                         @ rt-thread/components/utilities/ymodem/ymodem.c:252:0
	.fnstart
	.cfi_startproc
@ %bb.0:
	.save	{r7, lr}
	push	{r7, lr}
	.cfi_def_cfa_offset 8
	.cfi_offset lr, -4
	.cfi_offset r7, -8
	.pad	#32
	sub	sp, #32
	.cfi_def_cfa_offset 40
	str	r0, [sp, #24]
	str	r1, [sp, #20]
	movs	r0, #0
.Ltmp203:
	.loc	3 256 16 prologue_end           @ rt-thread/components/utilities/ymodem/ymodem.c:256:16
	strb.w	r0, [sp, #7]
	.loc	3 259 5                         @ rt-thread/components/utilities/ymodem/ymodem.c:259:5
	ldr	r2, [sp, #24]
	movs	r1, #1
	.loc	3 259 16 is_stmt 0              @ rt-thread/components/utilities/ymodem/ymodem.c:259:16
	strb	r1, [r2, #12]
	movs	r1, #133
	.loc	3 260 13 is_stmt 1              @ rt-thread/components/utilities/ymodem/ymodem.c:260:13
	str	r1, [sp, #8]
.Ltmp204:
	.loc	3 263 12                        @ rt-thread/components/utilities/ymodem/ymodem.c:263:12
	str	r0, [sp, #12]
	.loc	3 263 10 is_stmt 0              @ rt-thread/components/utilities/ymodem/ymodem.c:263:10
	b	.LBB13_1
.LBB13_1:                               @ =>This Inner Loop Header: Depth=1
.Ltmp205:
	.loc	3 263 17                        @ rt-thread/components/utilities/ymodem/ymodem.c:263:17
	ldr	r0, [sp, #12]
	.loc	3 263 21                        @ rt-thread/components/utilities/ymodem/ymodem.c:263:21
	ldr	r1, [sp, #20]
.Ltmp206:
	.loc	3 263 5                         @ rt-thread/components/utilities/ymodem/ymodem.c:263:5
	cmp	r0, r1
	bhs	.LBB13_6
	b	.LBB13_2
.LBB13_2:                               @   in Loop: Header=BB13_1 Depth=1
.Ltmp207:
	.loc	3 265 31 is_stmt 1              @ rt-thread/components/utilities/ymodem/ymodem.c:265:31
	ldr	r0, [sp, #24]
	movw	r1, #3000
	.loc	3 265 16 is_stmt 0              @ rt-thread/components/utilities/ymodem/ymodem.c:265:16
	bl	_rym_read_code
	.loc	3 265 14                        @ rt-thread/components/utilities/ymodem/ymodem.c:265:14
	strb.w	r0, [sp, #19]
.Ltmp208:
	.loc	3 267 13 is_stmt 1              @ rt-thread/components/utilities/ymodem/ymodem.c:267:13
	ldrb.w	r0, [sp, #19]
.Ltmp209:
	.loc	3 267 13 is_stmt 0              @ rt-thread/components/utilities/ymodem/ymodem.c:267:13
	cmp	r0, #67
	bne	.LBB13_4
	b	.LBB13_3
.LBB13_3:
.Ltmp210:
	.loc	3 269 13 is_stmt 1              @ rt-thread/components/utilities/ymodem/ymodem.c:269:13
	b	.LBB13_6
.Ltmp211:
.LBB13_4:                               @   in Loop: Header=BB13_1 Depth=1
	.loc	3 271 5                         @ rt-thread/components/utilities/ymodem/ymodem.c:271:5
	b	.LBB13_5
.Ltmp212:
.LBB13_5:                               @   in Loop: Header=BB13_1 Depth=1
	.loc	3 263 30                        @ rt-thread/components/utilities/ymodem/ymodem.c:263:30
	ldr	r0, [sp, #12]
	adds	r0, #1
	str	r0, [sp, #12]
	.loc	3 263 5 is_stmt 0               @ rt-thread/components/utilities/ymodem/ymodem.c:263:5
	b	.LBB13_1
.Ltmp213:
.LBB13_6:
	.loc	3 272 9 is_stmt 1               @ rt-thread/components/utilities/ymodem/ymodem.c:272:9
	ldr	r0, [sp, #12]
	.loc	3 272 14 is_stmt 0              @ rt-thread/components/utilities/ymodem/ymodem.c:272:14
	ldr	r1, [sp, #20]
.Ltmp214:
	.loc	3 272 9                         @ rt-thread/components/utilities/ymodem/ymodem.c:272:9
	cmp	r0, r1
	bne	.LBB13_8
	b	.LBB13_7
.LBB13_7:
	.loc	3 0 9                           @ rt-thread/components/utilities/ymodem/ymodem.c:0:9
	mvn	r0, #111
.Ltmp215:
	.loc	3 274 9 is_stmt 1               @ rt-thread/components/utilities/ymodem/ymodem.c:274:9
	str	r0, [sp, #28]
	b	.LBB13_16
.Ltmp216:
.LBB13_8:
	.loc	3 278 9                         @ rt-thread/components/utilities/ymodem/ymodem.c:278:9
	ldr	r0, [sp, #24]
	.loc	3 278 14 is_stmt 0              @ rt-thread/components/utilities/ymodem/ymodem.c:278:14
	ldr	r0, [r0, #4]
	.loc	3 278 23                        @ rt-thread/components/utilities/ymodem/ymodem.c:278:23
	cbz	r0, .LBB13_11
	b	.LBB13_9
.LBB13_9:
	.loc	3 278 26                        @ rt-thread/components/utilities/ymodem/ymodem.c:278:26
	ldr	r0, [sp, #24]
	.loc	3 278 31                        @ rt-thread/components/utilities/ymodem/ymodem.c:278:31
	ldr	r3, [r0, #4]
	.loc	3 278 50                        @ rt-thread/components/utilities/ymodem/ymodem.c:278:50
	ldr	r1, [r0, #16]
	.loc	3 278 54                        @ rt-thread/components/utilities/ymodem/ymodem.c:278:54
	adds	r1, #3
	.loc	3 278 59                        @ rt-thread/components/utilities/ymodem/ymodem.c:278:59
	ldr	r2, [sp, #8]
	.loc	3 278 67                        @ rt-thread/components/utilities/ymodem/ymodem.c:278:67
	subs	r2, #5
	.loc	3 278 26                        @ rt-thread/components/utilities/ymodem/ymodem.c:278:26
	blx	r3
.Ltmp217:
	.loc	3 278 9                         @ rt-thread/components/utilities/ymodem/ymodem.c:278:9
	cmp	r0, #1
	beq	.LBB13_11
	b	.LBB13_10
.LBB13_10:
	.loc	3 0 9                           @ rt-thread/components/utilities/ymodem/ymodem.c:0:9
	mvn	r0, #112
.Ltmp218:
	.loc	3 279 9 is_stmt 1               @ rt-thread/components/utilities/ymodem/ymodem.c:279:9
	str	r0, [sp, #28]
	b	.LBB13_16
.Ltmp219:
.LBB13_11:
	.loc	3 0 9 is_stmt 0                 @ rt-thread/components/utilities/ymodem/ymodem.c:0:9
	movs	r0, #1
	.loc	3 281 10 is_stmt 1              @ rt-thread/components/utilities/ymodem/ymodem.c:281:10
	strb.w	r0, [sp, #19]
	.loc	3 282 22                        @ rt-thread/components/utilities/ymodem/ymodem.c:282:22
	ldr	r0, [sp, #24]
	.loc	3 282 27 is_stmt 0              @ rt-thread/components/utilities/ymodem/ymodem.c:282:27
	ldrb.w	r1, [sp, #19]
	.loc	3 282 33                        @ rt-thread/components/utilities/ymodem/ymodem.c:282:33
	ldrb.w	r2, [sp, #7]
	.loc	3 282 5                         @ rt-thread/components/utilities/ymodem/ymodem.c:282:5
	bl	_rym_send_packet
	.loc	3 284 31 is_stmt 1              @ rt-thread/components/utilities/ymodem/ymodem.c:284:31
	ldr	r0, [sp, #24]
	.loc	3 284 36 is_stmt 0              @ rt-thread/components/utilities/ymodem/ymodem.c:284:36
	ldr	r0, [r0, #52]
	.loc	3 284 5                         @ rt-thread/components/utilities/ymodem/ymodem.c:284:5
	movw	r1, :lower16:_rym_rx_ind
	movt	r1, :upper16:_rym_rx_ind
	bl	rt_device_set_rx_indicate
	.loc	3 285 29 is_stmt 1              @ rt-thread/components/utilities/ymodem/ymodem.c:285:29
	ldr	r0, [sp, #24]
	.loc	3 285 16 is_stmt 0              @ rt-thread/components/utilities/ymodem/ymodem.c:285:16
	bl	_rym_getchar
	.loc	3 285 14                        @ rt-thread/components/utilities/ymodem/ymodem.c:285:14
	strb.w	r0, [sp, #6]
.Ltmp220:
	.loc	3 287 9 is_stmt 1               @ rt-thread/components/utilities/ymodem/ymodem.c:287:9
	ldrb.w	r0, [sp, #6]
.Ltmp221:
	.loc	3 287 9 is_stmt 0               @ rt-thread/components/utilities/ymodem/ymodem.c:287:9
	cmp	r0, #6
	beq	.LBB13_13
	b	.LBB13_12
.LBB13_12:
	.loc	3 0 9                           @ rt-thread/components/utilities/ymodem/ymodem.c:0:9
	mvn	r0, #117
.Ltmp222:
	.loc	3 289 9 is_stmt 1               @ rt-thread/components/utilities/ymodem/ymodem.c:289:9
	str	r0, [sp, #28]
	b	.LBB13_16
.Ltmp223:
.LBB13_13:
	.loc	3 292 29                        @ rt-thread/components/utilities/ymodem/ymodem.c:292:29
	ldr	r0, [sp, #24]
	.loc	3 292 16 is_stmt 0              @ rt-thread/components/utilities/ymodem/ymodem.c:292:16
	bl	_rym_getchar
	.loc	3 292 14                        @ rt-thread/components/utilities/ymodem/ymodem.c:292:14
	strb.w	r0, [sp, #6]
.Ltmp224:
	.loc	3 294 9 is_stmt 1               @ rt-thread/components/utilities/ymodem/ymodem.c:294:9
	ldrb.w	r0, [sp, #6]
.Ltmp225:
	.loc	3 294 9 is_stmt 0               @ rt-thread/components/utilities/ymodem/ymodem.c:294:9
	cmp	r0, #67
	beq	.LBB13_15
	b	.LBB13_14
.LBB13_14:
	.loc	3 0 9                           @ rt-thread/components/utilities/ymodem/ymodem.c:0:9
	mvn	r0, #117
.Ltmp226:
	.loc	3 296 9 is_stmt 1               @ rt-thread/components/utilities/ymodem/ymodem.c:296:9
	str	r0, [sp, #28]
	b	.LBB13_16
.Ltmp227:
.LBB13_15:
	.loc	3 299 5                         @ rt-thread/components/utilities/ymodem/ymodem.c:299:5
	ldr	r1, [sp, #24]
	movs	r0, #2
	.loc	3 299 16 is_stmt 0              @ rt-thread/components/utilities/ymodem/ymodem.c:299:16
	strb	r0, [r1, #12]
	movs	r0, #0
	.loc	3 301 5 is_stmt 1               @ rt-thread/components/utilities/ymodem/ymodem.c:301:5
	str	r0, [sp, #28]
	b	.LBB13_16
.LBB13_16:
	.loc	3 302 1                         @ rt-thread/components/utilities/ymodem/ymodem.c:302:1
	ldr	r0, [sp, #28]
	add	sp, #32
	pop	{r7, pc}
.Ltmp228:
.Lfunc_end13:
	.size	_rym_do_send_handshake, .Lfunc_end13-_rym_do_send_handshake
	.cfi_endproc
	.cantunwind
	.fnend
                                        @ -- End function
	.section	.text._rym_do_send_trans,"ax",%progbits
	.p2align	3                               @ -- Begin function _rym_do_send_trans
	.type	_rym_do_send_trans,%function
	.code	16                              @ @_rym_do_send_trans
	.thumb_func
_rym_do_send_trans:
.Lfunc_begin14:
	.loc	3 398 0                         @ rt-thread/components/utilities/ymodem/ymodem.c:398:0
	.fnstart
	.cfi_startproc
@ %bb.0:
	.save	{r7, lr}
	push	{r7, lr}
	.cfi_def_cfa_offset 8
	.cfi_offset lr, -4
	.cfi_offset r7, -8
	.pad	#24
	sub	sp, #24
	.cfi_def_cfa_offset 32
	str	r0, [sp, #16]
.Ltmp229:
	.loc	3 399 5 prologue_end            @ rt-thread/components/utilities/ymodem/ymodem.c:399:5
	ldr	r1, [sp, #16]
	movs	r0, #3
	.loc	3 399 16 is_stmt 0              @ rt-thread/components/utilities/ymodem/ymodem.c:399:16
	strb	r0, [r1, #12]
	movs	r0, #1
	.loc	3 402 17 is_stmt 1              @ rt-thread/components/utilities/ymodem/ymodem.c:402:17
	str	r0, [sp, #4]
	movs	r0, #133
	.loc	3 405 13                        @ rt-thread/components/utilities/ymodem/ymodem.c:405:13
	str	r0, [sp, #8]
	.loc	3 407 5                         @ rt-thread/components/utilities/ymodem/ymodem.c:407:5
	b	.LBB14_1
.LBB14_1:                               @ =>This Inner Loop Header: Depth=1
.Ltmp230:
	.loc	3 409 13                        @ rt-thread/components/utilities/ymodem/ymodem.c:409:13
	ldr	r0, [sp, #16]
	.loc	3 409 18 is_stmt 0              @ rt-thread/components/utilities/ymodem/ymodem.c:409:18
	ldr	r0, [r0]
	.loc	3 409 26                        @ rt-thread/components/utilities/ymodem/ymodem.c:409:26
	cbz	r0, .LBB14_4
	b	.LBB14_2
.LBB14_2:                               @   in Loop: Header=BB14_1 Depth=1
	.loc	3 409 29                        @ rt-thread/components/utilities/ymodem/ymodem.c:409:29
	ldr	r0, [sp, #16]
	.loc	3 409 34                        @ rt-thread/components/utilities/ymodem/ymodem.c:409:34
	ldr	r3, [r0]
	.loc	3 409 52                        @ rt-thread/components/utilities/ymodem/ymodem.c:409:52
	ldr	r1, [r0, #16]
	.loc	3 409 56                        @ rt-thread/components/utilities/ymodem/ymodem.c:409:56
	adds	r1, #3
	.loc	3 409 61                        @ rt-thread/components/utilities/ymodem/ymodem.c:409:61
	ldr	r2, [sp, #8]
	.loc	3 409 69                        @ rt-thread/components/utilities/ymodem/ymodem.c:409:69
	subs	r2, #5
	.loc	3 409 29                        @ rt-thread/components/utilities/ymodem/ymodem.c:409:29
	blx	r3
.Ltmp231:
	.loc	3 409 13                        @ rt-thread/components/utilities/ymodem/ymodem.c:409:13
	cmp	r0, #1
	beq	.LBB14_4
	b	.LBB14_3
.LBB14_3:
	.loc	3 0 13                          @ rt-thread/components/utilities/ymodem/ymodem.c:0:13
	mvn	r0, #112
.Ltmp232:
	.loc	3 410 13 is_stmt 1              @ rt-thread/components/utilities/ymodem/ymodem.c:410:13
	str	r0, [sp, #20]
	b	.LBB14_10
.Ltmp233:
.LBB14_4:                               @   in Loop: Header=BB14_1 Depth=1
	.loc	3 0 13 is_stmt 0                @ rt-thread/components/utilities/ymodem/ymodem.c:0:13
	movs	r0, #1
	.loc	3 412 14 is_stmt 1              @ rt-thread/components/utilities/ymodem/ymodem.c:412:14
	strb.w	r0, [sp, #15]
	.loc	3 414 26                        @ rt-thread/components/utilities/ymodem/ymodem.c:414:26
	ldr	r0, [sp, #16]
	.loc	3 414 31 is_stmt 0              @ rt-thread/components/utilities/ymodem/ymodem.c:414:31
	ldrb.w	r1, [sp, #15]
	.loc	3 414 37                        @ rt-thread/components/utilities/ymodem/ymodem.c:414:37
	ldrb.w	r2, [sp, #4]
	.loc	3 414 9                         @ rt-thread/components/utilities/ymodem/ymodem.c:414:9
	bl	_rym_send_packet
	.loc	3 415 14 is_stmt 1              @ rt-thread/components/utilities/ymodem/ymodem.c:415:14
	ldr	r0, [sp, #4]
	adds	r0, #1
	str	r0, [sp, #4]
	.loc	3 416 35                        @ rt-thread/components/utilities/ymodem/ymodem.c:416:35
	ldr	r0, [sp, #16]
	.loc	3 416 40 is_stmt 0              @ rt-thread/components/utilities/ymodem/ymodem.c:416:40
	ldr	r0, [r0, #52]
	.loc	3 416 9                         @ rt-thread/components/utilities/ymodem/ymodem.c:416:9
	movw	r1, :lower16:_rym_rx_ind
	movt	r1, :upper16:_rym_rx_ind
	bl	rt_device_set_rx_indicate
	.loc	3 418 33 is_stmt 1              @ rt-thread/components/utilities/ymodem/ymodem.c:418:33
	ldr	r0, [sp, #16]
	.loc	3 418 20 is_stmt 0              @ rt-thread/components/utilities/ymodem/ymodem.c:418:20
	bl	_rym_getchar
	.loc	3 418 18                        @ rt-thread/components/utilities/ymodem/ymodem.c:418:18
	strb.w	r0, [sp, #3]
.Ltmp234:
	.loc	3 420 13 is_stmt 1              @ rt-thread/components/utilities/ymodem/ymodem.c:420:13
	ldrb.w	r0, [sp, #3]
.Ltmp235:
	.loc	3 420 13 is_stmt 0              @ rt-thread/components/utilities/ymodem/ymodem.c:420:13
	cmp	r0, #6
	beq	.LBB14_6
	b	.LBB14_5
.LBB14_5:
	.loc	3 0 13                          @ rt-thread/components/utilities/ymodem/ymodem.c:0:13
	mvn	r0, #117
.Ltmp236:
	.loc	3 422 13 is_stmt 1              @ rt-thread/components/utilities/ymodem/ymodem.c:422:13
	str	r0, [sp, #20]
	b	.LBB14_10
.Ltmp237:
.LBB14_6:                               @   in Loop: Header=BB14_1 Depth=1
	.loc	3 425 13                        @ rt-thread/components/utilities/ymodem/ymodem.c:425:13
	ldr	r0, [sp, #16]
	.loc	3 425 18 is_stmt 0              @ rt-thread/components/utilities/ymodem/ymodem.c:425:18
	ldrb	r0, [r0, #12]
.Ltmp238:
	.loc	3 425 13                        @ rt-thread/components/utilities/ymodem/ymodem.c:425:13
	cmp	r0, #4
	bne	.LBB14_8
	b	.LBB14_7
.LBB14_7:
.Ltmp239:
	.loc	3 426 13 is_stmt 1              @ rt-thread/components/utilities/ymodem/ymodem.c:426:13
	b	.LBB14_9
.Ltmp240:
.LBB14_8:                               @   in Loop: Header=BB14_1 Depth=1
	.loc	3 407 5                         @ rt-thread/components/utilities/ymodem/ymodem.c:407:5
	b	.LBB14_1
.LBB14_9:
	.loc	3 0 5 is_stmt 0                 @ rt-thread/components/utilities/ymodem/ymodem.c:0:5
	movs	r0, #0
	.loc	3 429 5 is_stmt 1               @ rt-thread/components/utilities/ymodem/ymodem.c:429:5
	str	r0, [sp, #20]
	b	.LBB14_10
.LBB14_10:
	.loc	3 430 1                         @ rt-thread/components/utilities/ymodem/ymodem.c:430:1
	ldr	r0, [sp, #20]
	add	sp, #24
	pop	{r7, pc}
.Ltmp241:
.Lfunc_end14:
	.size	_rym_do_send_trans, .Lfunc_end14-_rym_do_send_trans
	.cfi_endproc
	.cantunwind
	.fnend
                                        @ -- End function
	.section	.text._rym_do_send_fin,"ax",%progbits
	.p2align	3                               @ -- Begin function _rym_do_send_fin
	.type	_rym_do_send_fin,%function
	.code	16                              @ @_rym_do_send_fin
	.thumb_func
_rym_do_send_fin:
.Lfunc_begin15:
	.loc	3 496 0                         @ rt-thread/components/utilities/ymodem/ymodem.c:496:0
	.fnstart
	.cfi_startproc
@ %bb.0:
	.save	{r7, lr}
	push	{r7, lr}
	.cfi_def_cfa_offset 8
	.cfi_offset lr, -4
	.cfi_offset r7, -8
	.pad	#24
	sub	sp, #24
	.cfi_def_cfa_offset 32
	str	r0, [sp, #16]
	movs	r0, #0
.Ltmp242:
	.loc	3 499 16 prologue_end           @ rt-thread/components/utilities/ymodem/ymodem.c:499:16
	strb.w	r0, [sp, #7]
	movs	r0, #133
	.loc	3 502 13                        @ rt-thread/components/utilities/ymodem/ymodem.c:502:13
	str	r0, [sp, #8]
	.loc	3 503 31                        @ rt-thread/components/utilities/ymodem/ymodem.c:503:31
	ldr	r0, [sp, #16]
	.loc	3 503 36 is_stmt 0              @ rt-thread/components/utilities/ymodem/ymodem.c:503:36
	ldr	r0, [r0, #52]
	.loc	3 503 5                         @ rt-thread/components/utilities/ymodem/ymodem.c:503:5
	movw	r1, :lower16:_rym_rx_ind
	movt	r1, :upper16:_rym_rx_ind
	bl	rt_device_set_rx_indicate
	.loc	3 505 18 is_stmt 1              @ rt-thread/components/utilities/ymodem/ymodem.c:505:18
	ldr	r0, [sp, #16]
	movs	r1, #4
	.loc	3 505 5 is_stmt 0               @ rt-thread/components/utilities/ymodem/ymodem.c:505:5
	bl	_rym_putchar
	.loc	3 506 29 is_stmt 1              @ rt-thread/components/utilities/ymodem/ymodem.c:506:29
	ldr	r0, [sp, #16]
	.loc	3 506 16 is_stmt 0              @ rt-thread/components/utilities/ymodem/ymodem.c:506:16
	bl	_rym_getchar
	.loc	3 506 14                        @ rt-thread/components/utilities/ymodem/ymodem.c:506:14
	strb.w	r0, [sp, #6]
.Ltmp243:
	.loc	3 508 9 is_stmt 1               @ rt-thread/components/utilities/ymodem/ymodem.c:508:9
	ldrb.w	r0, [sp, #6]
.Ltmp244:
	.loc	3 508 9 is_stmt 0               @ rt-thread/components/utilities/ymodem/ymodem.c:508:9
	cmp	r0, #21
	beq	.LBB15_2
	b	.LBB15_1
.LBB15_1:
	.loc	3 0 9                           @ rt-thread/components/utilities/ymodem/ymodem.c:0:9
	mvn	r0, #117
.Ltmp245:
	.loc	3 510 9 is_stmt 1               @ rt-thread/components/utilities/ymodem/ymodem.c:510:9
	str	r0, [sp, #20]
	b	.LBB15_10
.Ltmp246:
.LBB15_2:
	.loc	3 513 18                        @ rt-thread/components/utilities/ymodem/ymodem.c:513:18
	ldr	r0, [sp, #16]
	movs	r1, #4
	.loc	3 513 5 is_stmt 0               @ rt-thread/components/utilities/ymodem/ymodem.c:513:5
	bl	_rym_putchar
	.loc	3 514 29 is_stmt 1              @ rt-thread/components/utilities/ymodem/ymodem.c:514:29
	ldr	r0, [sp, #16]
	.loc	3 514 16 is_stmt 0              @ rt-thread/components/utilities/ymodem/ymodem.c:514:16
	bl	_rym_getchar
	.loc	3 514 14                        @ rt-thread/components/utilities/ymodem/ymodem.c:514:14
	strb.w	r0, [sp, #6]
.Ltmp247:
	.loc	3 516 9 is_stmt 1               @ rt-thread/components/utilities/ymodem/ymodem.c:516:9
	ldrb.w	r0, [sp, #6]
.Ltmp248:
	.loc	3 516 9 is_stmt 0               @ rt-thread/components/utilities/ymodem/ymodem.c:516:9
	cmp	r0, #6
	beq	.LBB15_4
	b	.LBB15_3
.LBB15_3:
	.loc	3 0 9                           @ rt-thread/components/utilities/ymodem/ymodem.c:0:9
	mvn	r0, #117
.Ltmp249:
	.loc	3 518 9 is_stmt 1               @ rt-thread/components/utilities/ymodem/ymodem.c:518:9
	str	r0, [sp, #20]
	b	.LBB15_10
.Ltmp250:
.LBB15_4:
	.loc	3 521 29                        @ rt-thread/components/utilities/ymodem/ymodem.c:521:29
	ldr	r0, [sp, #16]
	.loc	3 521 16 is_stmt 0              @ rt-thread/components/utilities/ymodem/ymodem.c:521:16
	bl	_rym_getchar
	.loc	3 521 14                        @ rt-thread/components/utilities/ymodem/ymodem.c:521:14
	strb.w	r0, [sp, #6]
.Ltmp251:
	.loc	3 523 9 is_stmt 1               @ rt-thread/components/utilities/ymodem/ymodem.c:523:9
	ldrb.w	r0, [sp, #6]
.Ltmp252:
	.loc	3 523 9 is_stmt 0               @ rt-thread/components/utilities/ymodem/ymodem.c:523:9
	cmp	r0, #67
	beq	.LBB15_6
	b	.LBB15_5
.LBB15_5:
	.loc	3 0 9                           @ rt-thread/components/utilities/ymodem/ymodem.c:0:9
	mvn	r0, #117
.Ltmp253:
	.loc	3 525 9 is_stmt 1               @ rt-thread/components/utilities/ymodem/ymodem.c:525:9
	str	r0, [sp, #20]
	b	.LBB15_10
.Ltmp254:
.LBB15_6:
	.loc	3 528 9                         @ rt-thread/components/utilities/ymodem/ymodem.c:528:9
	ldr	r0, [sp, #16]
	.loc	3 528 14 is_stmt 0              @ rt-thread/components/utilities/ymodem/ymodem.c:528:14
	ldr	r0, [r0, #8]
	.loc	3 528 21                        @ rt-thread/components/utilities/ymodem/ymodem.c:528:21
	cbz	r0, .LBB15_9
	b	.LBB15_7
.LBB15_7:
	.loc	3 528 24                        @ rt-thread/components/utilities/ymodem/ymodem.c:528:24
	ldr	r0, [sp, #16]
	.loc	3 528 29                        @ rt-thread/components/utilities/ymodem/ymodem.c:528:29
	ldr	r3, [r0, #8]
	.loc	3 528 46                        @ rt-thread/components/utilities/ymodem/ymodem.c:528:46
	ldr	r1, [r0, #16]
	.loc	3 528 50                        @ rt-thread/components/utilities/ymodem/ymodem.c:528:50
	adds	r1, #3
	.loc	3 528 55                        @ rt-thread/components/utilities/ymodem/ymodem.c:528:55
	ldr	r2, [sp, #8]
	.loc	3 528 63                        @ rt-thread/components/utilities/ymodem/ymodem.c:528:63
	subs	r2, #5
	.loc	3 528 24                        @ rt-thread/components/utilities/ymodem/ymodem.c:528:24
	blx	r3
.Ltmp255:
	.loc	3 528 9                         @ rt-thread/components/utilities/ymodem/ymodem.c:528:9
	cmp	r0, #1
	beq	.LBB15_9
	b	.LBB15_8
.LBB15_8:
	.loc	3 0 9                           @ rt-thread/components/utilities/ymodem/ymodem.c:0:9
	mvn	r0, #112
.Ltmp256:
	.loc	3 529 9 is_stmt 1               @ rt-thread/components/utilities/ymodem/ymodem.c:529:9
	str	r0, [sp, #20]
	b	.LBB15_10
.Ltmp257:
.LBB15_9:
	.loc	3 0 9 is_stmt 0                 @ rt-thread/components/utilities/ymodem/ymodem.c:0:9
	movs	r0, #1
	.loc	3 531 10 is_stmt 1              @ rt-thread/components/utilities/ymodem/ymodem.c:531:10
	strb.w	r0, [sp, #15]
	.loc	3 533 22                        @ rt-thread/components/utilities/ymodem/ymodem.c:533:22
	ldr	r0, [sp, #16]
	.loc	3 533 27 is_stmt 0              @ rt-thread/components/utilities/ymodem/ymodem.c:533:27
	ldrb.w	r1, [sp, #15]
	.loc	3 533 33                        @ rt-thread/components/utilities/ymodem/ymodem.c:533:33
	ldrb.w	r2, [sp, #7]
	.loc	3 533 5                         @ rt-thread/components/utilities/ymodem/ymodem.c:533:5
	bl	_rym_send_packet
	.loc	3 535 5 is_stmt 1               @ rt-thread/components/utilities/ymodem/ymodem.c:535:5
	ldr	r1, [sp, #16]
	movs	r0, #5
	.loc	3 535 16 is_stmt 0              @ rt-thread/components/utilities/ymodem/ymodem.c:535:16
	strb	r0, [r1, #12]
	movs	r0, #0
	.loc	3 537 5 is_stmt 1               @ rt-thread/components/utilities/ymodem/ymodem.c:537:5
	str	r0, [sp, #20]
	b	.LBB15_10
.LBB15_10:
	.loc	3 538 1                         @ rt-thread/components/utilities/ymodem/ymodem.c:538:1
	ldr	r0, [sp, #20]
	add	sp, #24
	pop	{r7, pc}
.Ltmp258:
.Lfunc_end15:
	.size	_rym_do_send_fin, .Lfunc_end15-_rym_do_send_fin
	.cfi_endproc
	.cantunwind
	.fnend
                                        @ -- End function
	.section	.text._rym_send_packet,"ax",%progbits
	.p2align	3                               @ -- Begin function _rym_send_packet
	.type	_rym_send_packet,%function
	.code	16                              @ @_rym_send_packet
	.thumb_func
_rym_send_packet:
.Lfunc_begin16:
	.loc	3 148 0                         @ rt-thread/components/utilities/ymodem/ymodem.c:148:0
	.fnstart
	.cfi_startproc
@ %bb.0:
	.save	{r7, lr}
	push	{r7, lr}
	.cfi_def_cfa_offset 8
	.cfi_offset lr, -4
	.cfi_offset r7, -8
	.pad	#16
	sub	sp, #16
	.cfi_def_cfa_offset 24
                                        @ kill: def $r3 killed $r2
                                        @ kill: def $r3 killed $r1
	str	r0, [sp, #12]
	strb.w	r1, [sp, #11]
	strb.w	r2, [sp, #10]
.Ltmp259:
	.loc	3 150 29 prologue_end           @ rt-thread/components/utilities/ymodem/ymodem.c:150:29
	ldrb.w	r0, [sp, #10]
	.loc	3 150 28 is_stmt 0              @ rt-thread/components/utilities/ymodem/ymodem.c:150:28
	mvns	r0, r0
	.loc	3 150 16                        @ rt-thread/components/utilities/ymodem/ymodem.c:150:16
	strb.w	r0, [sp, #7]
	movs	r0, #0
	.loc	3 151 15 is_stmt 1              @ rt-thread/components/utilities/ymodem/ymodem.c:151:15
	str	r0, [sp]
	.loc	3 153 22                        @ rt-thread/components/utilities/ymodem/ymodem.c:153:22
	ldr	r0, [sp, #12]
	.loc	3 153 27 is_stmt 0              @ rt-thread/components/utilities/ymodem/ymodem.c:153:27
	ldr	r0, [r0, #16]
	.loc	3 153 31                        @ rt-thread/components/utilities/ymodem/ymodem.c:153:31
	adds	r0, #3
	movs	r1, #128
	.loc	3 153 16                        @ rt-thread/components/utilities/ymodem/ymodem.c:153:16
	bl	CRC16
	.loc	3 153 14                        @ rt-thread/components/utilities/ymodem/ymodem.c:153:14
	strh.w	r0, [sp, #8]
	.loc	3 154 19 is_stmt 1              @ rt-thread/components/utilities/ymodem/ymodem.c:154:19
	ldrb.w	r0, [sp, #11]
	.loc	3 154 5 is_stmt 0               @ rt-thread/components/utilities/ymodem/ymodem.c:154:5
	ldr	r1, [sp, #12]
	.loc	3 154 10                        @ rt-thread/components/utilities/ymodem/ymodem.c:154:10
	ldr	r1, [r1, #16]
	.loc	3 154 17                        @ rt-thread/components/utilities/ymodem/ymodem.c:154:17
	strb	r0, [r1]
	.loc	3 155 19 is_stmt 1              @ rt-thread/components/utilities/ymodem/ymodem.c:155:19
	ldrb.w	r0, [sp, #10]
	.loc	3 155 5 is_stmt 0               @ rt-thread/components/utilities/ymodem/ymodem.c:155:5
	ldr	r1, [sp, #12]
	.loc	3 155 10                        @ rt-thread/components/utilities/ymodem/ymodem.c:155:10
	ldr	r1, [r1, #16]
	.loc	3 155 17                        @ rt-thread/components/utilities/ymodem/ymodem.c:155:17
	strb	r0, [r1, #1]
	.loc	3 156 19 is_stmt 1              @ rt-thread/components/utilities/ymodem/ymodem.c:156:19
	ldrb.w	r0, [sp, #7]
	.loc	3 156 5 is_stmt 0               @ rt-thread/components/utilities/ymodem/ymodem.c:156:5
	ldr	r1, [sp, #12]
	.loc	3 156 10                        @ rt-thread/components/utilities/ymodem/ymodem.c:156:10
	ldr	r1, [r1, #16]
	.loc	3 156 17                        @ rt-thread/components/utilities/ymodem/ymodem.c:156:17
	strb	r0, [r1, #2]
	.loc	3 157 34 is_stmt 1              @ rt-thread/components/utilities/ymodem/ymodem.c:157:34
	ldrb.w	r0, [sp, #9]
	.loc	3 157 5 is_stmt 0               @ rt-thread/components/utilities/ymodem/ymodem.c:157:5
	ldr	r1, [sp, #12]
	.loc	3 157 10                        @ rt-thread/components/utilities/ymodem/ymodem.c:157:10
	ldr	r1, [r1, #16]
	.loc	3 157 19                        @ rt-thread/components/utilities/ymodem/ymodem.c:157:19
	strb.w	r0, [r1, #131]
	.loc	3 158 21 is_stmt 1              @ rt-thread/components/utilities/ymodem/ymodem.c:158:21
	ldrb.w	r0, [sp, #8]
	.loc	3 158 5 is_stmt 0               @ rt-thread/components/utilities/ymodem/ymodem.c:158:5
	ldr	r1, [sp, #12]
	.loc	3 158 10                        @ rt-thread/components/utilities/ymodem/ymodem.c:158:10
	ldr	r1, [r1, #16]
	.loc	3 158 19                        @ rt-thread/components/utilities/ymodem/ymodem.c:158:19
	strb.w	r0, [r1, #132]
	.loc	3 160 5 is_stmt 1               @ rt-thread/components/utilities/ymodem/ymodem.c:160:5
	b	.LBB16_1
.LBB16_1:                               @ =>This Inner Loop Header: Depth=1
.Ltmp260:
	.loc	3 162 37                        @ rt-thread/components/utilities/ymodem/ymodem.c:162:37
	ldr	r0, [sp, #12]
	.loc	3 162 55 is_stmt 0              @ rt-thread/components/utilities/ymodem/ymodem.c:162:55
	ldr	r2, [r0, #16]
	.loc	3 162 42                        @ rt-thread/components/utilities/ymodem/ymodem.c:162:42
	ldr	r0, [r0, #52]
	.loc	3 162 61                        @ rt-thread/components/utilities/ymodem/ymodem.c:162:61
	ldr	r1, [sp]
	.loc	3 162 59                        @ rt-thread/components/utilities/ymodem/ymodem.c:162:59
	add	r2, r1
	.loc	3 163 53 is_stmt 1              @ rt-thread/components/utilities/ymodem/ymodem.c:163:53
	rsb.w	r3, r1, #133
	movs	r1, #0
	.loc	3 162 21                        @ rt-thread/components/utilities/ymodem/ymodem.c:162:21
	bl	rt_device_write
	mov	r1, r0
	.loc	3 162 18 is_stmt 0              @ rt-thread/components/utilities/ymodem/ymodem.c:162:18
	ldr	r0, [sp]
	add	r0, r1
	str	r0, [sp]
	.loc	3 164 5 is_stmt 1               @ rt-thread/components/utilities/ymodem/ymodem.c:164:5
	b	.LBB16_2
.Ltmp261:
.LBB16_2:                               @   in Loop: Header=BB16_1 Depth=1
	.loc	3 165 12                        @ rt-thread/components/utilities/ymodem/ymodem.c:165:12
	ldr	r0, [sp]
.Ltmp262:
	.loc	3 164 5                         @ rt-thread/components/utilities/ymodem/ymodem.c:164:5
	cmp	r0, #133
	blo	.LBB16_1
	b	.LBB16_3
.Ltmp263:
.LBB16_3:
	.loc	3 0 5 is_stmt 0                 @ rt-thread/components/utilities/ymodem/ymodem.c:0:5
	movs	r0, #0
	.loc	3 167 5 is_stmt 1               @ rt-thread/components/utilities/ymodem/ymodem.c:167:5
	add	sp, #16
	pop	{r7, pc}
.Ltmp264:
.Lfunc_end16:
	.size	_rym_send_packet, .Lfunc_end16-_rym_send_packet
	.cfi_endproc
	.cantunwind
	.fnend
                                        @ -- End function
	.section	.text._rym_getchar,"ax",%progbits
	.p2align	3                               @ -- Begin function _rym_getchar
	.type	_rym_getchar,%function
	.code	16                              @ @_rym_getchar
	.thumb_func
_rym_getchar:
.Lfunc_begin17:
	.loc	3 177 0                         @ rt-thread/components/utilities/ymodem/ymodem.c:177:0
	.fnstart
	.cfi_startproc
@ %bb.0:
	.save	{r7, lr}
	push	{r7, lr}
	.cfi_def_cfa_offset 8
	.cfi_offset lr, -4
	.cfi_offset r7, -8
	.pad	#8
	sub	sp, #8
	.cfi_def_cfa_offset 16
	str	r0, [sp, #4]
.Ltmp265:
	.loc	3 180 5 prologue_end            @ rt-thread/components/utilities/ymodem/ymodem.c:180:5
	b	.LBB17_1
.LBB17_1:                               @ =>This Inner Loop Header: Depth=1
	.loc	3 180 27 is_stmt 0              @ rt-thread/components/utilities/ymodem/ymodem.c:180:27
	ldr	r0, [sp, #4]
	.loc	3 180 32                        @ rt-thread/components/utilities/ymodem/ymodem.c:180:32
	ldr	r0, [r0, #52]
	movs	r1, #0
	add.w	r2, sp, #3
	movs	r3, #1
	.loc	3 180 12                        @ rt-thread/components/utilities/ymodem/ymodem.c:180:12
	bl	rt_device_read
	.loc	3 180 5                         @ rt-thread/components/utilities/ymodem/ymodem.c:180:5
	cmp	r0, #1
	beq	.LBB17_3
	b	.LBB17_2
.LBB17_2:                               @   in Loop: Header=BB17_1 Depth=1
.Ltmp266:
	.loc	3 182 22 is_stmt 1              @ rt-thread/components/utilities/ymodem/ymodem.c:182:22
	ldr	r0, [sp, #4]
	.loc	3 182 27 is_stmt 0              @ rt-thread/components/utilities/ymodem/ymodem.c:182:27
	adds	r0, #20
	mov.w	r1, #-1
	.loc	3 182 9                         @ rt-thread/components/utilities/ymodem/ymodem.c:182:9
	bl	rt_sem_take
.Ltmp267:
	.loc	3 180 5 is_stmt 1               @ rt-thread/components/utilities/ymodem/ymodem.c:180:5
	b	.LBB17_1
.LBB17_3:
	.loc	3 184 12                        @ rt-thread/components/utilities/ymodem/ymodem.c:184:12
	ldrb.w	r0, [sp, #3]
	.loc	3 184 5 is_stmt 0               @ rt-thread/components/utilities/ymodem/ymodem.c:184:5
	add	sp, #8
	pop	{r7, pc}
.Ltmp268:
.Lfunc_end17:
	.size	_rym_getchar, .Lfunc_end17-_rym_getchar
	.cfi_endproc
	.cantunwind
	.fnend
                                        @ -- End function
	.type	_rym_the_ctx,%object            @ @_rym_the_ctx
	.section	.bss._rym_the_ctx,"aw",%nobits
	.p2align	2
_rym_the_ctx:
	.long	0
	.size	_rym_the_ctx, 4

	.type	.L.str,%object                  @ @.str
	.section	.rodata.str1.1,"aMS",%progbits,1
.L.str:
	.asciz	"_rym_the_ctx == 0"
	.size	.L.str, 18

	.type	.L__FUNCTION__.rym_recv_on_device,%object @ @__FUNCTION__.rym_recv_on_device
.L__FUNCTION__.rym_recv_on_device:
	.asciz	"rym_recv_on_device"
	.size	.L__FUNCTION__.rym_recv_on_device, 19

	.type	.L.str.1,%object                @ @.str.1
.L.str.1:
	.asciz	"rymsem"
	.size	.L.str.1, 7

	.type	.L__FUNCTION__.rym_send_on_device,%object @ @__FUNCTION__.rym_send_on_device
.L__FUNCTION__.rym_send_on_device:
	.asciz	"rym_send_on_device"
	.size	.L__FUNCTION__.rym_send_on_device, 19

	.section	".note.GNU-stack","",%progbits
	.eabi_attribute	30, 6	@ Tag_ABI_optimization_goals
	.ARM_attribute	16, 1	@ Tag_AV_eba